ARM GAS  C:\Users\mac_000\AppData\Local\Temp\ccXDnscg.s 			page 1


   1              		.syntax unified
   2              		.cpu cortex-m0
   3              		.fpu softvfp
   4              		.eabi_attribute 20, 1
   5              		.eabi_attribute 21, 1
   6              		.eabi_attribute 23, 3
   7              		.eabi_attribute 24, 1
   8              		.eabi_attribute 25, 1
   9              		.eabi_attribute 26, 1
  10              		.eabi_attribute 30, 1
  11              		.eabi_attribute 34, 0
  12              		.eabi_attribute 18, 4
  13              		.thumb
  14              		.syntax unified
  15              		.file	"main.c"
  16              		.text
  17              	.Ltext0:
  18              		.cfi_sections	.debug_frame
  19              		.section	.text.do_capture,"ax",%progbits
  20              		.align	2
  21              		.global	do_capture
  22              		.code	16
  23              		.thumb_func
  24              		.type	do_capture, %function
  25              	do_capture:
  26              	.LFB33:
  27              		.file 1 "main.c"
   1:main.c        **** /* ========================================
   2:main.c        ****  *
   3:main.c        ****  * Copyright AGRI-HITECH LLC, 2020
   4:main.c        ****  * All Rights Reserved
   5:main.c        ****  * UNPUBLISHED, LICENSED SOFTWARE.
   6:main.c        ****  * ========================================
   7:main.c        ****  * Program & Coded by fanfan (mac@line.to)
   8:main.c        **** */
   9:main.c        **** #include "project.h"
  10:main.c        **** #include <stdio.h>
  11:main.c        **** 
  12:main.c        **** #define T1Period 255
  13:main.c        **** #define CodeL 34
  14:main.c        **** 
  15:main.c        **** enum { FR = 1, FL = 2, BR = 4, BL = 8} M_Stat;
  16:main.c        **** 
  17:main.c        **** const struct KEY {
  18:main.c        ****     short code; char motor; } key[] = {
  19:main.c        ****         {0x10b1,(FL)},
  20:main.c        ****         {0x10a0,(FR|FL)},
  21:main.c        ****         {0x1021,(FR)},
  22:main.c        ****         {0x1010,(FL|BR)},
  23:main.c        ****         {0x1020,0},
  24:main.c        ****         {0x1080,(BL|FR)},
  25:main.c        ****         {0x1011,(BL)},
  26:main.c        ****         {0x1000,(BL|BR)},
  27:main.c        ****         {0x1081,(BR)},
  28:main.c        ****         {0,0}
  29:main.c        ****     };
  30:main.c        **** static short Capture[100];
ARM GAS  C:\Users\mac_000\AppData\Local\Temp\ccXDnscg.s 			page 2


  31:main.c        **** static int NCapture = 0;
  32:main.c        **** 
  33:main.c        **** CY_ISR(do_capture) {
  28              		.loc 1 33 0
  29              		.cfi_startproc
  30              		@ args = 0, pretend = 0, frame = 0
  31              		@ frame_needed = 0, uses_anonymous_args = 0
  32 0000 70B5     		push	{r4, r5, r6, lr}
  33              		.cfi_def_cfa_offset 16
  34              		.cfi_offset 4, -16
  35              		.cfi_offset 5, -12
  36              		.cfi_offset 6, -8
  37              		.cfi_offset 14, -4
  34:main.c        ****     Timer1_STATUS;
  38              		.loc 1 34 0
  39 0002 064B     		ldr	r3, .L2
  40 0004 1B78     		ldrb	r3, [r3]
  35:main.c        ****     Capture[NCapture++] = Timer1_ReadCapture();
  41              		.loc 1 35 0
  42 0006 064D     		ldr	r5, .L2+4
  43 0008 2C68     		ldr	r4, [r5]
  44 000a 631C     		adds	r3, r4, #1
  45 000c 2B60     		str	r3, [r5]
  46 000e FFF7FEFF 		bl	Timer1_ReadCapture
  47              	.LVL0:
  48 0012 6400     		lsls	r4, r4, #1
  49 0014 2C19     		adds	r4, r5, r4
  50 0016 A080     		strh	r0, [r4, #4]
  36:main.c        **** }
  51              		.loc 1 36 0
  52              		@ sp needed
  53 0018 70BD     		pop	{r4, r5, r6, pc}
  54              	.L3:
  55 001a C046     		.align	2
  56              	.L2:
  57 001c 61000F40 		.word	1074724961
  58 0020 00000000 		.word	.LANCHOR0
  59              		.cfi_endproc
  60              	.LFE33:
  61              		.size	do_capture, .-do_capture
  62              		.section	.text.do_stop,"ax",%progbits
  63              		.align	2
  64              		.global	do_stop
  65              		.code	16
  66              		.thumb_func
  67              		.type	do_stop, %function
  68              	do_stop:
  69              	.LFB34:
  37:main.c        **** 
  38:main.c        **** CY_ISR(do_stop) {
  70              		.loc 1 38 0
  71              		.cfi_startproc
  72              		@ args = 0, pretend = 0, frame = 0
  73              		@ frame_needed = 0, uses_anonymous_args = 0
  74 0000 10B5     		push	{r4, lr}
  75              		.cfi_def_cfa_offset 8
  76              		.cfi_offset 4, -8
ARM GAS  C:\Users\mac_000\AppData\Local\Temp\ccXDnscg.s 			page 3


  77              		.cfi_offset 14, -4
  39:main.c        ****     Timer2_STATUS;
  78              		.loc 1 39 0
  79 0002 074B     		ldr	r3, .L5
  80 0004 1B78     		ldrb	r3, [r3]
  40:main.c        ****     M_BL_Write(0);
  81              		.loc 1 40 0
  82 0006 0020     		movs	r0, #0
  83 0008 FFF7FEFF 		bl	M_BL_Write
  84              	.LVL1:
  41:main.c        ****     M_BR_Write(0);
  85              		.loc 1 41 0
  86 000c 0020     		movs	r0, #0
  87 000e FFF7FEFF 		bl	M_BR_Write
  88              	.LVL2:
  42:main.c        ****     M_FL_Write(0);
  89              		.loc 1 42 0
  90 0012 0020     		movs	r0, #0
  91 0014 FFF7FEFF 		bl	M_FL_Write
  92              	.LVL3:
  43:main.c        ****     M_FR_Write(0);
  93              		.loc 1 43 0
  94 0018 0020     		movs	r0, #0
  95 001a FFF7FEFF 		bl	M_FR_Write
  96              	.LVL4:
  44:main.c        **** }
  97              		.loc 1 44 0
  98              		@ sp needed
  99 001e 10BD     		pop	{r4, pc}
 100              	.L6:
 101              		.align	2
 102              	.L5:
 103 0020 60000F40 		.word	1074724960
 104              		.cfi_endproc
 105              	.LFE34:
 106              		.size	do_stop, .-do_stop
 107              		.section	.text.Puts,"ax",%progbits
 108              		.align	2
 109              		.global	Puts
 110              		.code	16
 111              		.thumb_func
 112              		.type	Puts, %function
 113              	Puts:
 114              	.LFB35:
  45:main.c        **** 
  46:main.c        **** void Puts(const char *s) {
 115              		.loc 1 46 0
 116              		.cfi_startproc
 117              		@ args = 0, pretend = 0, frame = 0
 118              		@ frame_needed = 0, uses_anonymous_args = 0
 119              	.LVL5:
 120 0000 10B5     		push	{r4, lr}
 121              		.cfi_def_cfa_offset 8
 122              		.cfi_offset 4, -8
 123              		.cfi_offset 14, -4
  47:main.c        ****     UART1_UartPutString(s);
 124              		.loc 1 47 0
ARM GAS  C:\Users\mac_000\AppData\Local\Temp\ccXDnscg.s 			page 4


 125 0002 FFF7FEFF 		bl	UART1_UartPutString
 126              	.LVL6:
  48:main.c        **** }
 127              		.loc 1 48 0
 128              		@ sp needed
 129 0006 10BD     		pop	{r4, pc}
 130              		.cfi_endproc
 131              	.LFE35:
 132              		.size	Puts, .-Puts
 133              		.section	.text.main,"ax",%progbits
 134              		.align	2
 135              		.global	main
 136              		.code	16
 137              		.thumb_func
 138              		.type	main, %function
 139              	main:
 140              	.LFB36:
  49:main.c        **** 
  50:main.c        **** int main(void)
  51:main.c        **** {
 141              		.loc 1 51 0
 142              		.cfi_startproc
 143              		@ args = 0, pretend = 0, frame = 80
 144              		@ frame_needed = 0, uses_anonymous_args = 0
 145 0000 F0B5     		push	{r4, r5, r6, r7, lr}
 146              		.cfi_def_cfa_offset 20
 147              		.cfi_offset 4, -20
 148              		.cfi_offset 5, -16
 149              		.cfi_offset 6, -12
 150              		.cfi_offset 7, -8
 151              		.cfi_offset 14, -4
 152 0002 95B0     		sub	sp, sp, #84
 153              		.cfi_def_cfa_offset 104
 154              	.LVL7:
  52:main.c        ****     char buf[80];
  53:main.c        ****     unsigned rep, code = 0;
  54:main.c        ****     unsigned char b0, b1, b2, b3;
  55:main.c        ****     
  56:main.c        ****     int i;
  57:main.c        **** 
  58:main.c        ****     UART1_Start();
 155              		.loc 1 58 0
 156 0004 FFF7FEFF 		bl	UART1_Start
 157              	.LVL8:
  59:main.c        ****     Timer1_Start();
 158              		.loc 1 59 0
 159 0008 FFF7FEFF 		bl	Timer1_Start
 160              	.LVL9:
  60:main.c        ****     Timer2_Start();
 161              		.loc 1 60 0
 162 000c FFF7FEFF 		bl	Timer2_Start
 163              	.LVL10:
  61:main.c        ****     
  62:main.c        ****     ISR1_StartEx(do_capture);
 164              		.loc 1 62 0
 165 0010 5848     		ldr	r0, .L30
 166 0012 FFF7FEFF 		bl	ISR1_StartEx
ARM GAS  C:\Users\mac_000\AppData\Local\Temp\ccXDnscg.s 			page 5


 167              	.LVL11:
  63:main.c        ****     CyGlobalIntEnable;
 168              		.loc 1 63 0
 169              		.syntax divided
 170              	@ 63 "main.c" 1
 171 0016 62B6     		CPSIE   i
 172              	@ 0 "" 2
  53:main.c        ****     unsigned char b0, b1, b2, b3;
 173              		.loc 1 53 0
 174              		.thumb
 175              		.syntax unified
 176 0018 0024     		movs	r4, #0
 177              	.LVL12:
 178              	.L9:
 179              	.LBB2:
  64:main.c        ****     
  65:main.c        ****     for(;;)
  66:main.c        ****     {  
  67:main.c        ****         ISR1_Disable();
 180              		.loc 1 67 0
 181 001a FFF7FEFF 		bl	ISR1_Disable
 182              	.LVL13:
  68:main.c        ****         ISR1_ClearPending();
 183              		.loc 1 68 0
 184 001e FFF7FEFF 		bl	ISR1_ClearPending
 185              	.LVL14:
  69:main.c        ****         Timer2_WriteCounter(255);
 186              		.loc 1 69 0
 187 0022 FF20     		movs	r0, #255
 188 0024 FFF7FEFF 		bl	Timer2_WriteCounter
 189              	.LVL15:
 190              	.L10:
  70:main.c        ****         while (Timer2_ReadCounter() > (255-8));
 191              		.loc 1 70 0 discriminator 1
 192 0028 FFF7FEFF 		bl	Timer2_ReadCounter
 193              	.LVL16:
 194 002c F728     		cmp	r0, #247
 195 002e FBD8     		bhi	.L10
  71:main.c        ****         NCapture=0;
 196              		.loc 1 71 0
 197 0030 0022     		movs	r2, #0
 198 0032 514B     		ldr	r3, .L30+4
 199 0034 1A60     		str	r2, [r3]
  72:main.c        ****         Timer1_ClearFIFO();
 200              		.loc 1 72 0
 201 0036 FFF7FEFF 		bl	Timer1_ClearFIFO
 202              	.LVL17:
  73:main.c        ****         Timer1_Init();
 203              		.loc 1 73 0
 204 003a FFF7FEFF 		bl	Timer1_Init
 205              	.LVL18:
  74:main.c        ****         Timer1_Enable();
 206              		.loc 1 74 0
 207 003e FFF7FEFF 		bl	Timer1_Enable
 208              	.LVL19:
  75:main.c        ****         Timer1_WriteCounter(T1Period);
 209              		.loc 1 75 0
ARM GAS  C:\Users\mac_000\AppData\Local\Temp\ccXDnscg.s 			page 6


 210 0042 FF20     		movs	r0, #255
 211 0044 FFF7FEFF 		bl	Timer1_WriteCounter
 212              	.LVL20:
  76:main.c        ****         Timer1_WritePeriod(T1Period);        
 213              		.loc 1 76 0
 214 0048 FF20     		movs	r0, #255
 215 004a FFF7FEFF 		bl	Timer1_WritePeriod
 216              	.LVL21:
  77:main.c        ****         LED_Write(1);
 217              		.loc 1 77 0
 218 004e 0120     		movs	r0, #1
 219 0050 FFF7FEFF 		bl	LED_Write
 220              	.LVL22:
  78:main.c        ****         ISR1_Enable();
 221              		.loc 1 78 0
 222 0054 FFF7FEFF 		bl	ISR1_Enable
 223              	.LVL23:
 224              	.L11:
  79:main.c        ****         
  80:main.c        ****         while (Timer1_ReadCounter() > 10);
 225              		.loc 1 80 0 discriminator 1
 226 0058 FFF7FEFF 		bl	Timer1_ReadCounter
 227              	.LVL24:
 228 005c 0A28     		cmp	r0, #10
 229 005e FBD8     		bhi	.L11
  81:main.c        ****         LED_Write(0);
 230              		.loc 1 81 0
 231 0060 0020     		movs	r0, #0
 232 0062 FFF7FEFF 		bl	LED_Write
 233              	.LVL25:
  82:main.c        ****         snprintf(buf, 80, "interrupt %d\r\n", NCapture);
 234              		.loc 1 82 0
 235 0066 444B     		ldr	r3, .L30+4
 236 0068 1B68     		ldr	r3, [r3]
 237 006a 444A     		ldr	r2, .L30+8
 238 006c 5021     		movs	r1, #80
 239 006e 6846     		mov	r0, sp
 240 0070 FFF7FEFF 		bl	snprintf
 241              	.LVL26:
  83:main.c        ****         Puts(buf);
 242              		.loc 1 83 0
 243 0074 6846     		mov	r0, sp
 244 0076 FFF7FEFF 		bl	Puts
 245              	.LVL27:
  84:main.c        ****         unsigned L = 0;
 246              		.loc 1 84 0
 247 007a 0023     		movs	r3, #0
  85:main.c        ****         for (i = 1; i < NCapture; i++) {
 248              		.loc 1 85 0
 249 007c 0121     		movs	r1, #1
 250 007e 17E0     		b	.L12
 251              	.LVL28:
 252              	.L15:
 253              	.LBB3:
  86:main.c        ****             unsigned long bit;
  87:main.c        ****             int diff;
  88:main.c        ****             
ARM GAS  C:\Users\mac_000\AppData\Local\Temp\ccXDnscg.s 			page 7


  89:main.c        ****             diff = Capture[i-1] -Capture[i];
 254              		.loc 1 89 0
 255 0080 4A1E     		subs	r2, r1, #1
 256 0082 3D4D     		ldr	r5, .L30+4
 257 0084 5200     		lsls	r2, r2, #1
 258 0086 AA18     		adds	r2, r5, r2
 259 0088 0420     		movs	r0, #4
 260 008a 125E     		ldrsh	r2, [r2, r0]
 261 008c 4800     		lsls	r0, r1, #1
 262 008e 2818     		adds	r0, r5, r0
 263 0090 0425     		movs	r5, #4
 264 0092 405F     		ldrsh	r0, [r0, r5]
 265 0094 121A     		subs	r2, r2, r0
 266              	.LVL29:
  90:main.c        ****  
  91:main.c        ****             if (diff < 450) {
 267              		.loc 1 91 0
 268 0096 C220     		movs	r0, #194
 269 0098 FF30     		adds	r0, r0, #255
 270 009a 8242     		cmp	r2, r0
 271 009c 01DC     		bgt	.L27
  92:main.c        ****                 bit = 0;
 272              		.loc 1 92 0
 273 009e 0022     		movs	r2, #0
 274              	.LVL30:
 275 00a0 01E0     		b	.L13
 276              	.LVL31:
 277              	.L27:
  93:main.c        ****             }
  94:main.c        ****             else {
  95:main.c        ****                 bit = 0x80000000u;
 278              		.loc 1 95 0
 279 00a2 8022     		movs	r2, #128
 280              	.LVL32:
 281 00a4 1206     		lsls	r2, r2, #24
 282              	.L13:
 283              	.LVL33:
  96:main.c        ****             }
  97:main.c        ****             L >>= 1;
 284              		.loc 1 97 0
 285 00a6 5B08     		lsrs	r3, r3, #1
 286              	.LVL34:
  98:main.c        ****             L = L | bit;
 287              		.loc 1 98 0
 288 00a8 1343     		orrs	r3, r2
 289              	.LVL35:
  99:main.c        ****             if (i >= CodeL) break;
 290              		.loc 1 99 0
 291 00aa 2129     		cmp	r1, #33
 292 00ac 04DC     		bgt	.L14
 293              	.LBE3:
  85:main.c        ****             unsigned long bit;
 294              		.loc 1 85 0 discriminator 2
 295 00ae 0131     		adds	r1, r1, #1
 296              	.LVL36:
 297              	.L12:
  85:main.c        ****             unsigned long bit;
ARM GAS  C:\Users\mac_000\AppData\Local\Temp\ccXDnscg.s 			page 8


 298              		.loc 1 85 0 is_stmt 0 discriminator 1
 299 00b0 314A     		ldr	r2, .L30+4
 300 00b2 1668     		ldr	r6, [r2]
 301 00b4 B142     		cmp	r1, r6
 302 00b6 E3DB     		blt	.L15
 303              	.L14:
 100:main.c        ****         }
 101:main.c        ****         if (NCapture <= 3) {
 304              		.loc 1 101 0 is_stmt 1
 305 00b8 032E     		cmp	r6, #3
 306 00ba 01DC     		bgt	.L28
 102:main.c        ****             rep = 1;
 307              		.loc 1 102 0
 308 00bc 0127     		movs	r7, #1
 309 00be 02E0     		b	.L16
 310              	.L28:
 103:main.c        ****         }
 104:main.c        ****         else {
 105:main.c        ****             rep = 0;
 106:main.c        ****             code = -1;
 311              		.loc 1 106 0
 312 00c0 0124     		movs	r4, #1
 313              	.LVL37:
 314 00c2 6442     		rsbs	r4, r4, #0
 105:main.c        ****             code = -1;
 315              		.loc 1 105 0
 316 00c4 0027     		movs	r7, #0
 317              	.L16:
 318              	.LVL38:
 107:main.c        ****         }
 108:main.c        ****         
 109:main.c        **** 
 110:main.c        ****         if (NCapture >= CodeL) {
 319              		.loc 1 110 0
 320 00c6 212E     		cmp	r6, #33
 321 00c8 18DD     		ble	.L17
 322              	.LVL39:
 111:main.c        ****             b0 = L & 0xff;
 112:main.c        ****             b1 = (L & 0xff00) >> 8;
 323              		.loc 1 112 0
 324 00ca 180A     		lsrs	r0, r3, #8
 113:main.c        ****             b2 = (L & 0xff0000) >> 16;
 325              		.loc 1 113 0
 326 00cc 190C     		lsrs	r1, r3, #16
 327              	.LVL40:
 114:main.c        ****             b3 = (L & 0xff000000) >> 24;
 328              		.loc 1 114 0
 329 00ce 1D0E     		lsrs	r5, r3, #24
 115:main.c        ****             if (((b0 ^ (~b1 & 0xff)) | (b2 ^ (~b3 & 0xff))) == 0) {
 330              		.loc 1 115 0
 331 00d0 FF22     		movs	r2, #255
 332 00d2 1600     		movs	r6, r2
 333 00d4 8643     		bics	r6, r0
 334 00d6 3000     		movs	r0, r6
 335 00d8 1600     		movs	r6, r2
 336 00da 1E40     		ands	r6, r3
 337 00dc 7040     		eors	r0, r6
ARM GAS  C:\Users\mac_000\AppData\Local\Temp\ccXDnscg.s 			page 9


 338 00de 1140     		ands	r1, r2
 339              	.LVL41:
 340 00e0 AA43     		bics	r2, r5
 341 00e2 4A40     		eors	r2, r1
 342 00e4 0243     		orrs	r2, r0
 343 00e6 05D1     		bne	.L18
 116:main.c        ****                 code = ((b0 & 0xff) << 8) | (b2 & 0xff);
 344              		.loc 1 116 0
 345 00e8 1C02     		lsls	r4, r3, #8
 346              	.LVL42:
 347 00ea FF22     		movs	r2, #255
 348 00ec 1202     		lsls	r2, r2, #8
 349 00ee 1440     		ands	r4, r2
 350 00f0 0C43     		orrs	r4, r1
 351              	.LVL43:
 352 00f2 03E0     		b	.L17
 353              	.L18:
 117:main.c        ****             }
 118:main.c        ****             else if (rep == 0) {
 354              		.loc 1 118 0
 355 00f4 002F     		cmp	r7, #0
 356 00f6 01D1     		bne	.L17
 119:main.c        ****                 code = -1;
 357              		.loc 1 119 0
 358 00f8 0124     		movs	r4, #1
 359              	.LVL44:
 360 00fa 6442     		rsbs	r4, r4, #0
 361              	.LVL45:
 362              	.L17:
 120:main.c        ****             }
 121:main.c        ****         }      
 122:main.c        ****         snprintf(buf, 80, "%x\r\n", L);
 363              		.loc 1 122 0
 364 00fc 204A     		ldr	r2, .L30+12
 365 00fe 5021     		movs	r1, #80
 366 0100 6846     		mov	r0, sp
 367 0102 FFF7FEFF 		bl	snprintf
 368              	.LVL46:
 123:main.c        ****         Puts(buf);
 369              		.loc 1 123 0
 370 0106 6846     		mov	r0, sp
 371 0108 FFF7FEFF 		bl	Puts
 372              	.LVL47:
 124:main.c        ****         
 125:main.c        ****         struct KEY const *p;
 126:main.c        ****         for (p = &key[0]; p->code != 0; p++) {
 373              		.loc 1 126 0
 374 010c 1D4D     		ldr	r5, .L30+16
 375 010e 2BE0     		b	.L19
 376              	.LVL48:
 377              	.L26:
 127:main.c        ****             if ((short)code == p->code) {
 378              		.loc 1 127 0
 379 0110 22B2     		sxth	r2, r4
 380 0112 9342     		cmp	r3, r2
 381 0114 27D1     		bne	.L20
 128:main.c        ****                 if (p->motor & BL) {
ARM GAS  C:\Users\mac_000\AppData\Local\Temp\ccXDnscg.s 			page 10


 382              		.loc 1 128 0
 383 0116 AB78     		ldrb	r3, [r5, #2]
 384 0118 1B07     		lsls	r3, r3, #28
 385 011a 05D5     		bpl	.L21
 129:main.c        ****                     M_BL_Write(1); Puts("BL ");
 386              		.loc 1 129 0
 387 011c 0120     		movs	r0, #1
 388 011e FFF7FEFF 		bl	M_BL_Write
 389              	.LVL49:
 390 0122 1948     		ldr	r0, .L30+20
 391 0124 FFF7FEFF 		bl	Puts
 392              	.LVL50:
 393              	.L21:
 130:main.c        ****                 };
 131:main.c        ****                 if (p->motor & BR) {
 394              		.loc 1 131 0
 395 0128 AB78     		ldrb	r3, [r5, #2]
 396 012a 5B07     		lsls	r3, r3, #29
 397 012c 05D5     		bpl	.L22
 132:main.c        ****                     M_BR_Write(1); Puts("BR ");
 398              		.loc 1 132 0
 399 012e 0120     		movs	r0, #1
 400 0130 FFF7FEFF 		bl	M_BR_Write
 401              	.LVL51:
 402 0134 1548     		ldr	r0, .L30+24
 403 0136 FFF7FEFF 		bl	Puts
 404              	.LVL52:
 405              	.L22:
 133:main.c        ****                 };
 134:main.c        ****                 if (p->motor & FL) {
 406              		.loc 1 134 0
 407 013a AB78     		ldrb	r3, [r5, #2]
 408 013c 9B07     		lsls	r3, r3, #30
 409 013e 05D5     		bpl	.L23
 135:main.c        ****                     M_FL_Write(1); Puts("FL ");
 410              		.loc 1 135 0
 411 0140 0120     		movs	r0, #1
 412 0142 FFF7FEFF 		bl	M_FL_Write
 413              	.LVL53:
 414 0146 1248     		ldr	r0, .L30+28
 415 0148 FFF7FEFF 		bl	Puts
 416              	.LVL54:
 417              	.L23:
 136:main.c        ****                 };
 137:main.c        ****                 if (p->motor & FR) {
 418              		.loc 1 137 0
 419 014c AB78     		ldrb	r3, [r5, #2]
 420 014e DB07     		lsls	r3, r3, #31
 421 0150 05D5     		bpl	.L24
 138:main.c        ****                     M_FR_Write(1); Puts("FR ");
 422              		.loc 1 138 0
 423 0152 0120     		movs	r0, #1
 424 0154 FFF7FEFF 		bl	M_FR_Write
 425              	.LVL55:
 426 0158 0E48     		ldr	r0, .L30+32
 427 015a FFF7FEFF 		bl	Puts
 428              	.LVL56:
ARM GAS  C:\Users\mac_000\AppData\Local\Temp\ccXDnscg.s 			page 11


 429              	.L24:
 139:main.c        ****                 };
 140:main.c        ****                 Puts("\r\n");
 430              		.loc 1 140 0
 431 015e 0E48     		ldr	r0, .L30+36
 432 0160 FFF7FEFF 		bl	Puts
 433              	.LVL57:
 141:main.c        ****                 break;
 434              		.loc 1 141 0
 435 0164 59E7     		b	.L9
 436              	.L20:
 126:main.c        ****             if ((short)code == p->code) {
 437              		.loc 1 126 0 discriminator 2
 438 0166 0435     		adds	r5, r5, #4
 439              	.LVL58:
 440              	.L19:
 126:main.c        ****             if ((short)code == p->code) {
 441              		.loc 1 126 0 is_stmt 0 discriminator 1
 442 0168 0022     		movs	r2, #0
 443 016a AB5E     		ldrsh	r3, [r5, r2]
 444 016c 002B     		cmp	r3, #0
 445 016e CFD1     		bne	.L26
 446 0170 53E7     		b	.L9
 447              	.L31:
 448 0172 C046     		.align	2
 449              	.L30:
 450 0174 00000000 		.word	do_capture
 451 0178 00000000 		.word	.LANCHOR0
 452 017c 00000000 		.word	.LC4
 453 0180 10000000 		.word	.LC6
 454 0184 00000000 		.word	.LANCHOR1
 455 0188 18000000 		.word	.LC8
 456 018c 1C000000 		.word	.LC10
 457 0190 20000000 		.word	.LC12
 458 0194 24000000 		.word	.LC14
 459 0198 28000000 		.word	.LC16
 460              	.LBE2:
 461              		.cfi_endproc
 462              	.LFE36:
 463              		.size	main, .-main
 464              		.global	key
 465              		.comm	M_Stat,1,1
 466              		.section	.rodata
 467              		.align	2
 468              		.set	.LANCHOR1,. + 0
 469              		.type	key, %object
 470              		.size	key, 40
 471              	key:
 472 0000 B110     		.short	4273
 473 0002 02       		.byte	2
 474 0003 00       		.space	1
 475 0004 A010     		.short	4256
 476 0006 03       		.byte	3
 477 0007 00       		.space	1
 478 0008 2110     		.short	4129
 479 000a 01       		.byte	1
 480 000b 00       		.space	1
ARM GAS  C:\Users\mac_000\AppData\Local\Temp\ccXDnscg.s 			page 12


 481 000c 1010     		.short	4112
 482 000e 06       		.byte	6
 483 000f 00       		.space	1
 484 0010 2010     		.short	4128
 485 0012 00       		.byte	0
 486 0013 00       		.space	1
 487 0014 8010     		.short	4224
 488 0016 09       		.byte	9
 489 0017 00       		.space	1
 490 0018 1110     		.short	4113
 491 001a 08       		.byte	8
 492 001b 00       		.space	1
 493 001c 0010     		.short	4096
 494 001e 0C       		.byte	12
 495 001f 00       		.space	1
 496 0020 8110     		.short	4225
 497 0022 04       		.byte	4
 498 0023 00       		.space	1
 499 0024 0000     		.short	0
 500 0026 00       		.byte	0
 501 0027 00       		.space	1
 502              		.section	.rodata.str1.4,"aMS",%progbits,1
 503              		.align	2
 504              	.LC4:
 505 0000 696E7465 		.ascii	"interrupt %d\015\012\000"
 505      72727570 
 505      74202564 
 505      0D0A00
 506 000f 00       		.space	1
 507              	.LC6:
 508 0010 25780D0A 		.ascii	"%x\015\012\000"
 508      00
 509 0015 000000   		.space	3
 510              	.LC8:
 511 0018 424C2000 		.ascii	"BL \000"
 512              	.LC10:
 513 001c 42522000 		.ascii	"BR \000"
 514              	.LC12:
 515 0020 464C2000 		.ascii	"FL \000"
 516              	.LC14:
 517 0024 46522000 		.ascii	"FR \000"
 518              	.LC16:
 519 0028 0D0A00   		.ascii	"\015\012\000"
 520              		.bss
 521              		.align	2
 522              		.set	.LANCHOR0,. + 0
 523              		.type	NCapture, %object
 524              		.size	NCapture, 4
 525              	NCapture:
 526 0000 00000000 		.space	4
 527              		.type	Capture, %object
 528              		.size	Capture, 200
 529              	Capture:
 530 0004 00000000 		.space	200
 530      00000000 
 530      00000000 
 530      00000000 
ARM GAS  C:\Users\mac_000\AppData\Local\Temp\ccXDnscg.s 			page 13


 530      00000000 
 531              		.text
 532              	.Letext0:
 533              		.file 2 "Generated_Source\\PSoC4/cytypes.h"
 534              		.file 3 "Generated_Source\\PSoC4/Timer1.h"
 535              		.file 4 "Generated_Source\\PSoC4/M_BL.h"
 536              		.file 5 "Generated_Source\\PSoC4/M_BR.h"
 537              		.file 6 "Generated_Source\\PSoC4/M_FL.h"
 538              		.file 7 "Generated_Source\\PSoC4/M_FR.h"
 539              		.file 8 "Generated_Source\\PSoC4/UART1_SPI_UART.h"
 540              		.file 9 "Generated_Source\\PSoC4/ISR1.h"
 541              		.file 10 "Generated_Source\\PSoC4/Timer2.h"
 542              		.file 11 "Generated_Source\\PSoC4/LED.h"
 543              		.file 12 "c:\\program files (x86)\\cypress\\psoc creator\\4.3\\psoc creator\\import\\gnu\\arm\\5.4
 544              		.file 13 "Generated_Source\\PSoC4/UART1.h"