ARM GAS  C:\Users\mac_000\AppData\Local\Temp\ccpsNMUs.s 			page 1


   1              		.syntax unified
   2              		.cpu cortex-m0
   3              		.fpu softvfp
   4              		.eabi_attribute 20, 1
   5              		.eabi_attribute 21, 1
   6              		.eabi_attribute 23, 3
   7              		.eabi_attribute 24, 1
   8              		.eabi_attribute 25, 1
   9              		.eabi_attribute 26, 1
  10              		.eabi_attribute 30, 1
  11              		.eabi_attribute 34, 0
  12              		.eabi_attribute 18, 4
  13              		.thumb
  14              		.syntax unified
  15              		.file	"main.c"
  16              		.text
  17              	.Ltext0:
  18              		.cfi_sections	.debug_frame
  19              		.section	.text.do_capture,"ax",%progbits
  20              		.align	2
  21              		.global	do_capture
  22              		.code	16
  23              		.thumb_func
  24              		.type	do_capture, %function
  25              	do_capture:
  26              	.LFB35:
  27              		.file 1 "main.c"
   1:main.c        **** /* ========================================
   2:main.c        ****  *
   3:main.c        ****  * Copyright YOUR COMPANY, THE YEAR
   4:main.c        ****  * All Rights Reserved
   5:main.c        ****  * UNPUBLISHED, LICENSED SOFTWARE.
   6:main.c        ****  *
   7:main.c        ****  * CONFIDENTIAL AND PROPRIETARY INFORMATION
   8:main.c        ****  * WHICH IS THE PROPERTY OF your company.
   9:main.c        ****  *
  10:main.c        ****  * ========================================
  11:main.c        **** */
  12:main.c        **** #include "project.h"
  13:main.c        **** #include <stdio.h>
  14:main.c        **** 
  15:main.c        **** static short Capture[100];
  16:main.c        **** static int NCapture = 0;
  17:main.c        **** 
  18:main.c        **** CY_ISR(do_capture) {
  28              		.loc 1 18 0
  29              		.cfi_startproc
  30              		@ args = 0, pretend = 0, frame = 0
  31              		@ frame_needed = 0, uses_anonymous_args = 0
  32 0000 70B5     		push	{r4, r5, r6, lr}
  33              		.cfi_def_cfa_offset 16
  34              		.cfi_offset 4, -16
  35              		.cfi_offset 5, -12
  36              		.cfi_offset 6, -8
  37              		.cfi_offset 14, -4
  19:main.c        ****     Timer1_STATUS;
  38              		.loc 1 19 0
ARM GAS  C:\Users\mac_000\AppData\Local\Temp\ccpsNMUs.s 			page 2


  39 0002 064B     		ldr	r3, .L2
  40 0004 1B78     		ldrb	r3, [r3]
  20:main.c        ****     Capture[NCapture++] = Timer1_ReadCapture();
  41              		.loc 1 20 0
  42 0006 064D     		ldr	r5, .L2+4
  43 0008 2C68     		ldr	r4, [r5]
  44 000a 631C     		adds	r3, r4, #1
  45 000c 2B60     		str	r3, [r5]
  46 000e FFF7FEFF 		bl	Timer1_ReadCapture
  47              	.LVL0:
  48 0012 6400     		lsls	r4, r4, #1
  49 0014 2C19     		adds	r4, r5, r4
  50 0016 A080     		strh	r0, [r4, #4]
  21:main.c        **** }
  51              		.loc 1 21 0
  52              		@ sp needed
  53 0018 70BD     		pop	{r4, r5, r6, pc}
  54              	.L3:
  55 001a C046     		.align	2
  56              	.L2:
  57 001c 61000F40 		.word	1074724961
  58 0020 00000000 		.word	.LANCHOR0
  59              		.cfi_endproc
  60              	.LFE35:
  61              		.size	do_capture, .-do_capture
  62              		.section	.text.Puts,"ax",%progbits
  63              		.align	2
  64              		.global	Puts
  65              		.code	16
  66              		.thumb_func
  67              		.type	Puts, %function
  68              	Puts:
  69              	.LFB36:
  22:main.c        **** 
  23:main.c        **** void Puts(const char *s) {
  70              		.loc 1 23 0
  71              		.cfi_startproc
  72              		@ args = 0, pretend = 0, frame = 0
  73              		@ frame_needed = 0, uses_anonymous_args = 0
  74              	.LVL1:
  75 0000 10B5     		push	{r4, lr}
  76              		.cfi_def_cfa_offset 8
  77              		.cfi_offset 4, -8
  78              		.cfi_offset 14, -4
  24:main.c        ****     UART1_UartPutString(s);
  79              		.loc 1 24 0
  80 0002 FFF7FEFF 		bl	UART1_UartPutString
  81              	.LVL2:
  25:main.c        **** }
  82              		.loc 1 25 0
  83              		@ sp needed
  84 0006 10BD     		pop	{r4, pc}
  85              		.cfi_endproc
  86              	.LFE36:
  87              		.size	Puts, .-Puts
  88              		.section	.text.main,"ax",%progbits
  89              		.align	2
ARM GAS  C:\Users\mac_000\AppData\Local\Temp\ccpsNMUs.s 			page 3


  90              		.global	main
  91              		.code	16
  92              		.thumb_func
  93              		.type	main, %function
  94              	main:
  95              	.LFB37:
  26:main.c        **** 
  27:main.c        **** int main(void)
  28:main.c        **** {
  96              		.loc 1 28 0
  97              		.cfi_startproc
  98              		@ args = 0, pretend = 0, frame = 80
  99              		@ frame_needed = 0, uses_anonymous_args = 0
 100 0000 70B5     		push	{r4, r5, r6, lr}
 101              		.cfi_def_cfa_offset 16
 102              		.cfi_offset 4, -16
 103              		.cfi_offset 5, -12
 104              		.cfi_offset 6, -8
 105              		.cfi_offset 14, -4
 106 0002 96B0     		sub	sp, sp, #88
 107              		.cfi_def_cfa_offset 104
 108              	.LVL3:
  29:main.c        ****     char buf[80];
  30:main.c        ****     int rep, code = 0;
  31:main.c        ****     
  32:main.c        ****     int i;
  33:main.c        **** 
  34:main.c        ****     UART1_Start();
 109              		.loc 1 34 0
 110 0004 FFF7FEFF 		bl	UART1_Start
 111              	.LVL4:
  35:main.c        ****     Timer1_Start();
 112              		.loc 1 35 0
 113 0008 FFF7FEFF 		bl	Timer1_Start
 114              	.LVL5:
  36:main.c        ****     Timer2_Start();
 115              		.loc 1 36 0
 116 000c FFF7FEFF 		bl	Timer2_Start
 117              	.LVL6:
  37:main.c        ****     
  38:main.c        ****     ISR1_StartEx(do_capture);
 118              		.loc 1 38 0
 119 0010 3F48     		ldr	r0, .L19
 120 0012 FFF7FEFF 		bl	ISR1_StartEx
 121              	.LVL7:
  39:main.c        ****     CyGlobalIntEnable;
 122              		.loc 1 39 0
 123              		.syntax divided
 124              	@ 39 "main.c" 1
 125 0016 62B6     		CPSIE   i
 126              	@ 0 "" 2
  30:main.c        ****     
 127              		.loc 1 30 0
 128              		.thumb
 129              		.syntax unified
 130 0018 0024     		movs	r4, #0
 131              	.LVL8:
ARM GAS  C:\Users\mac_000\AppData\Local\Temp\ccpsNMUs.s 			page 4


 132              	.L15:
 133              	.LBB2:
  40:main.c        ****     
  41:main.c        ****     for(;;)
  42:main.c        ****     {  
  43:main.c        ****         ISR1_Disable();
 134              		.loc 1 43 0
 135 001a FFF7FEFF 		bl	ISR1_Disable
 136              	.LVL9:
  44:main.c        ****         ISR1_ClearPending();
 137              		.loc 1 44 0
 138 001e FFF7FEFF 		bl	ISR1_ClearPending
 139              	.LVL10:
 140              	.L6:
  45:main.c        ****         while ((Timer2_ReadStatusRegister() & Timer2_STATUS_TC) == 0);
 141              		.loc 1 45 0 discriminator 1
 142 0022 FFF7FEFF 		bl	Timer2_ReadStatusRegister
 143              	.LVL11:
 144 0026 C307     		lsls	r3, r0, #31
 145 0028 FBD5     		bpl	.L6
  46:main.c        ****         NCapture=0;
 146              		.loc 1 46 0
 147 002a 0022     		movs	r2, #0
 148 002c 394B     		ldr	r3, .L19+4
 149 002e 1A60     		str	r2, [r3]
  47:main.c        ****         Timer1_ClearFIFO();
 150              		.loc 1 47 0
 151 0030 FFF7FEFF 		bl	Timer1_ClearFIFO
 152              	.LVL12:
  48:main.c        ****         Timer1_Init();
 153              		.loc 1 48 0
 154 0034 FFF7FEFF 		bl	Timer1_Init
 155              	.LVL13:
  49:main.c        ****         Timer1_Enable();
 156              		.loc 1 49 0
 157 0038 FFF7FEFF 		bl	Timer1_Enable
 158              	.LVL14:
  50:main.c        ****         Timer1_WriteCounter(26000);
 159              		.loc 1 50 0
 160 003c 364D     		ldr	r5, .L19+8
 161 003e 2800     		movs	r0, r5
 162 0040 FFF7FEFF 		bl	Timer1_WriteCounter
 163              	.LVL15:
  51:main.c        ****         Timer1_WritePeriod(26000);
 164              		.loc 1 51 0
 165 0044 2800     		movs	r0, r5
 166 0046 FFF7FEFF 		bl	Timer1_WritePeriod
 167              	.LVL16:
 168              	.L7:
  52:main.c        ****         while (IR_Read() != 0);
 169              		.loc 1 52 0 discriminator 1
 170 004a FFF7FEFF 		bl	IR_Read
 171              	.LVL17:
 172 004e 0028     		cmp	r0, #0
 173 0050 FBD1     		bne	.L7
  53:main.c        ****         ISR1_Enable();
 174              		.loc 1 53 0
ARM GAS  C:\Users\mac_000\AppData\Local\Temp\ccpsNMUs.s 			page 5


 175 0052 FFF7FEFF 		bl	ISR1_Enable
 176              	.LVL18:
  54:main.c        ****         LED_Write(1);
 177              		.loc 1 54 0
 178 0056 0120     		movs	r0, #1
 179 0058 FFF7FEFF 		bl	LED_Write
 180              	.LVL19:
 181              	.L8:
  55:main.c        ****         while (Timer1_ReadCounter() > 10);
 182              		.loc 1 55 0 discriminator 1
 183 005c FFF7FEFF 		bl	Timer1_ReadCounter
 184              	.LVL20:
 185 0060 0A28     		cmp	r0, #10
 186 0062 FBD8     		bhi	.L8
  56:main.c        ****         ISR1_Disable();
 187              		.loc 1 56 0
 188 0064 FFF7FEFF 		bl	ISR1_Disable
 189              	.LVL21:
  57:main.c        ****         LED_Write(0);
 190              		.loc 1 57 0
 191 0068 0020     		movs	r0, #0
 192 006a FFF7FEFF 		bl	LED_Write
 193              	.LVL22:
  58:main.c        ****         snprintf(buf, 80, "interrupt %d\r\n", NCapture);
 194              		.loc 1 58 0
 195 006e 294B     		ldr	r3, .L19+4
 196 0070 1B68     		ldr	r3, [r3]
 197 0072 2A4A     		ldr	r2, .L19+12
 198 0074 5021     		movs	r1, #80
 199 0076 02A8     		add	r0, sp, #8
 200 0078 FFF7FEFF 		bl	snprintf
 201              	.LVL23:
  59:main.c        ****         Puts(buf);
 202              		.loc 1 59 0
 203 007c 02A8     		add	r0, sp, #8
 204 007e FFF7FEFF 		bl	Puts
 205              	.LVL24:
  60:main.c        ****         unsigned L = 0;
 206              		.loc 1 60 0
 207 0082 0021     		movs	r1, #0
  61:main.c        ****         for (i = 1; i < NCapture; i++) {
 208              		.loc 1 61 0
 209 0084 0122     		movs	r2, #1
 210 0086 15E0     		b	.L9
 211              	.LVL25:
 212              	.L11:
 213              	.LBB3:
  62:main.c        ****             unsigned long bit;
  63:main.c        ****             int diff;
  64:main.c        ****             
  65:main.c        ****             diff = Capture[i-1] -Capture[i];
 214              		.loc 1 65 0
 215 0088 531E     		subs	r3, r2, #1
 216 008a 224D     		ldr	r5, .L19+4
 217 008c 5B00     		lsls	r3, r3, #1
 218 008e EB18     		adds	r3, r5, r3
 219 0090 0420     		movs	r0, #4
ARM GAS  C:\Users\mac_000\AppData\Local\Temp\ccpsNMUs.s 			page 6


 220 0092 1B5E     		ldrsh	r3, [r3, r0]
 221 0094 5000     		lsls	r0, r2, #1
 222 0096 2818     		adds	r0, r5, r0
 223 0098 0425     		movs	r5, #4
 224 009a 405F     		ldrsh	r0, [r0, r5]
 225 009c 1B1A     		subs	r3, r3, r0
 226              	.LVL26:
  66:main.c        ****  
  67:main.c        ****             if (diff < 450) {
 227              		.loc 1 67 0
 228 009e C220     		movs	r0, #194
 229 00a0 FF30     		adds	r0, r0, #255
 230 00a2 8342     		cmp	r3, r0
 231 00a4 01DC     		bgt	.L16
  68:main.c        ****                 bit = 0;
 232              		.loc 1 68 0
 233 00a6 0023     		movs	r3, #0
 234              	.LVL27:
 235 00a8 01E0     		b	.L10
 236              	.LVL28:
 237              	.L16:
  69:main.c        ****             }
  70:main.c        ****             else {
  71:main.c        ****                 bit = 0x80000000u;
 238              		.loc 1 71 0
 239 00aa 8023     		movs	r3, #128
 240              	.LVL29:
 241 00ac 1B06     		lsls	r3, r3, #24
 242              	.L10:
 243              	.LVL30:
  72:main.c        ****             }
  73:main.c        ****             L >>= 1;
 244              		.loc 1 73 0 discriminator 2
 245 00ae 4908     		lsrs	r1, r1, #1
 246              	.LVL31:
  74:main.c        ****             L = L | bit;                       
 247              		.loc 1 74 0 discriminator 2
 248 00b0 1943     		orrs	r1, r3
 249              	.LVL32:
 250              	.LBE3:
  61:main.c        ****             unsigned long bit;
 251              		.loc 1 61 0 discriminator 2
 252 00b2 0132     		adds	r2, r2, #1
 253              	.LVL33:
 254              	.L9:
  61:main.c        ****             unsigned long bit;
 255              		.loc 1 61 0 is_stmt 0 discriminator 1
 256 00b4 174B     		ldr	r3, .L19+4
 257 00b6 1B68     		ldr	r3, [r3]
 258 00b8 9A42     		cmp	r2, r3
 259 00ba E5DB     		blt	.L11
  75:main.c        ****         }
  76:main.c        ****         if (NCapture <= 2) {
 260              		.loc 1 76 0 is_stmt 1
 261 00bc 022B     		cmp	r3, #2
 262 00be 01DC     		bgt	.L17
  77:main.c        ****             rep = 1;
ARM GAS  C:\Users\mac_000\AppData\Local\Temp\ccpsNMUs.s 			page 7


 263              		.loc 1 77 0
 264 00c0 0120     		movs	r0, #1
 265 00c2 01E0     		b	.L12
 266              	.L17:
  78:main.c        ****         }
  79:main.c        ****         else {
  80:main.c        ****             rep = 0;
  81:main.c        ****             code = 0;
 267              		.loc 1 81 0
 268 00c4 0024     		movs	r4, #0
 269              	.LVL34:
  80:main.c        ****             code = 0;
 270              		.loc 1 80 0
 271 00c6 0020     		movs	r0, #0
 272              	.L12:
 273              	.LVL35:
  82:main.c        ****         }
  83:main.c        ****         
  84:main.c        ****         unsigned char b0, b1, b2, b3;
  85:main.c        ****         if (NCapture >=34) {
 274              		.loc 1 85 0
 275 00c8 212B     		cmp	r3, #33
 276 00ca 15DD     		ble	.L13
 277              	.LVL36:
  86:main.c        ****             b0 = L & 0xff;
  87:main.c        ****             b1 = (L >> 8) & 0xff;
 278              		.loc 1 87 0
 279 00cc 0A0A     		lsrs	r2, r1, #8
 280              	.LVL37:
  88:main.c        ****             b2 = (L >> 16) & 0xff;
 281              		.loc 1 88 0
 282 00ce 0D0C     		lsrs	r5, r1, #16
 283              	.LVL38:
  89:main.c        ****             b3 = (L >> 24) & 0xff;
 284              		.loc 1 89 0
 285 00d0 0E0E     		lsrs	r6, r1, #24
 286              	.LVL39:
  90:main.c        ****             if (b0 & ~b1 && b2 & ~b3) {
 287              		.loc 1 90 0
 288 00d2 FF23     		movs	r3, #255
 289 00d4 1A40     		ands	r2, r3
 290              	.LVL40:
 291 00d6 0B40     		ands	r3, r1
 292 00d8 9343     		bics	r3, r2
 293 00da 0AD0     		beq	.L14
 294              		.loc 1 90 0 is_stmt 0 discriminator 1
 295 00dc FF23     		movs	r3, #255
 296 00de 1D40     		ands	r5, r3
 297              	.LVL41:
 298 00e0 2B00     		movs	r3, r5
 299 00e2 B343     		bics	r3, r6
 300 00e4 05D0     		beq	.L14
  91:main.c        ****                 code = (b0 << 8) | b2;
 301              		.loc 1 91 0 is_stmt 1
 302 00e6 0C02     		lsls	r4, r1, #8
 303              	.LVL42:
 304 00e8 FF23     		movs	r3, #255
ARM GAS  C:\Users\mac_000\AppData\Local\Temp\ccpsNMUs.s 			page 8


 305 00ea 1B02     		lsls	r3, r3, #8
 306 00ec 1C40     		ands	r4, r3
 307 00ee 2C43     		orrs	r4, r5
 308              	.LVL43:
 309 00f0 02E0     		b	.L13
 310              	.L14:
  92:main.c        ****             }
  93:main.c        ****             else if (rep == 0) {
 311              		.loc 1 93 0
 312 00f2 0028     		cmp	r0, #0
 313 00f4 00D1     		bne	.L13
  94:main.c        ****                 code = 0;
 314              		.loc 1 94 0
 315 00f6 0024     		movs	r4, #0
 316              	.LVL44:
 317              	.L13:
  95:main.c        ****             }
  96:main.c        ****         }      
  97:main.c        ****         snprintf(buf, 80, "%x, %x\r\n",code, L);
 318              		.loc 1 97 0
 319 00f8 0091     		str	r1, [sp]
 320 00fa 2300     		movs	r3, r4
 321 00fc 084A     		ldr	r2, .L19+16
 322 00fe 5021     		movs	r1, #80
 323              	.LVL45:
 324 0100 02A8     		add	r0, sp, #8
 325              	.LVL46:
 326 0102 FFF7FEFF 		bl	snprintf
 327              	.LVL47:
  98:main.c        ****         Puts(buf);
 328              		.loc 1 98 0
 329 0106 02A8     		add	r0, sp, #8
 330 0108 FFF7FEFF 		bl	Puts
 331              	.LVL48:
 332              	.LBE2:
  99:main.c        ****     }
 333              		.loc 1 99 0
 334 010c 85E7     		b	.L15
 335              	.L20:
 336 010e C046     		.align	2
 337              	.L19:
 338 0110 00000000 		.word	do_capture
 339 0114 00000000 		.word	.LANCHOR0
 340 0118 90650000 		.word	26000
 341 011c 00000000 		.word	.LC3
 342 0120 10000000 		.word	.LC5
 343              		.cfi_endproc
 344              	.LFE37:
 345              		.size	main, .-main
 346              		.section	.rodata.str1.4,"aMS",%progbits,1
 347              		.align	2
 348              	.LC3:
 349 0000 696E7465 		.ascii	"interrupt %d\015\012\000"
 349      72727570 
 349      74202564 
 349      0D0A00
 350 000f 00       		.space	1
ARM GAS  C:\Users\mac_000\AppData\Local\Temp\ccpsNMUs.s 			page 9


 351              	.LC5:
 352 0010 25782C20 		.ascii	"%x, %x\015\012\000"
 352      25780D0A 
 352      00
 353              		.bss
 354              		.align	2
 355              		.set	.LANCHOR0,. + 0
 356              		.type	NCapture, %object
 357              		.size	NCapture, 4
 358              	NCapture:
 359 0000 00000000 		.space	4
 360              		.type	Capture, %object
 361              		.size	Capture, 200
 362              	Capture:
 363 0004 00000000 		.space	200
 363      00000000 
 363      00000000 
 363      00000000 
 363      00000000 
 364              		.text
 365              	.Letext0:
 366              		.file 2 "Generated_Source\\PSoC4/cytypes.h"
 367              		.file 3 "Generated_Source\\PSoC4/Timer1.h"
 368              		.file 4 "Generated_Source\\PSoC4/UART1_SPI_UART.h"
 369              		.file 5 "Generated_Source\\PSoC4/ISR1.h"
 370              		.file 6 "Generated_Source\\PSoC4/Timer2.h"
 371              		.file 7 "Generated_Source\\PSoC4/IR.h"
 372              		.file 8 "Generated_Source\\PSoC4/LED.h"
 373              		.file 9 "c:\\program files (x86)\\cypress\\psoc creator\\4.3\\psoc creator\\import\\gnu\\arm\\5.4.
 374              		.file 10 "Generated_Source\\PSoC4/UART1.h"