ARM GAS  C:\Users\mac_000\AppData\Local\Temp\ccfkNUHS.s 			page 1


   1              		.syntax unified
   2              		.cpu cortex-m0
   3              		.fpu softvfp
   4              		.eabi_attribute 20, 1
   5              		.eabi_attribute 21, 1
   6              		.eabi_attribute 23, 3
   7              		.eabi_attribute 24, 1
   8              		.eabi_attribute 25, 1
   9              		.eabi_attribute 26, 1
  10              		.eabi_attribute 30, 1
  11              		.eabi_attribute 34, 0
  12              		.eabi_attribute 18, 4
  13              		.thumb
  14              		.syntax unified
  15              		.file	"Count1.c"
  16              		.text
  17              	.Ltext0:
  18              		.cfi_sections	.debug_frame
  19              		.section	.text.Count1_Init,"ax",%progbits
  20              		.align	2
  21              		.global	Count1_Init
  22              		.code	16
  23              		.thumb_func
  24              		.type	Count1_Init, %function
  25              	Count1_Init:
  26              	.LFB1:
  27              		.file 1 "Generated_Source\\PSoC4\\Count1.c"
   1:Generated_Source\PSoC4/Count1.c **** /*******************************************************************************
   2:Generated_Source\PSoC4/Count1.c **** * File Name: Count1.c
   3:Generated_Source\PSoC4/Count1.c **** * Version 1.0
   4:Generated_Source\PSoC4/Count1.c **** *
   5:Generated_Source\PSoC4/Count1.c **** * Description:
   6:Generated_Source\PSoC4/Count1.c **** *  This file provides source code for the Count7 component's API.
   7:Generated_Source\PSoC4/Count1.c **** *
   8:Generated_Source\PSoC4/Count1.c **** * Note:
   9:Generated_Source\PSoC4/Count1.c **** *
  10:Generated_Source\PSoC4/Count1.c **** ********************************************************************************
  11:Generated_Source\PSoC4/Count1.c **** * Copyright 2013, Cypress Semiconductor Corporation.  All rights reserved.
  12:Generated_Source\PSoC4/Count1.c **** * You may use this file only in accordance with the license, terms, conditions,
  13:Generated_Source\PSoC4/Count1.c **** * disclaimers, and limitations in the end user license agreement accompanying
  14:Generated_Source\PSoC4/Count1.c **** * the software package with which this file was provided.
  15:Generated_Source\PSoC4/Count1.c **** *******************************************************************************/
  16:Generated_Source\PSoC4/Count1.c **** 
  17:Generated_Source\PSoC4/Count1.c **** #include "Count1.h"
  18:Generated_Source\PSoC4/Count1.c **** 
  19:Generated_Source\PSoC4/Count1.c **** uint8 Count1_initVar = 0u;
  20:Generated_Source\PSoC4/Count1.c **** 
  21:Generated_Source\PSoC4/Count1.c **** 
  22:Generated_Source\PSoC4/Count1.c **** /*******************************************************************************
  23:Generated_Source\PSoC4/Count1.c **** * Function Name: Count1_Init
  24:Generated_Source\PSoC4/Count1.c **** ********************************************************************************
  25:Generated_Source\PSoC4/Count1.c **** *
  26:Generated_Source\PSoC4/Count1.c **** * Summary:
  27:Generated_Source\PSoC4/Count1.c **** *  Initializes or restores the component according to the parameter editor
  28:Generated_Source\PSoC4/Count1.c **** *  settings.
  29:Generated_Source\PSoC4/Count1.c **** *
  30:Generated_Source\PSoC4/Count1.c **** * Parameters:
ARM GAS  C:\Users\mac_000\AppData\Local\Temp\ccfkNUHS.s 			page 2


  31:Generated_Source\PSoC4/Count1.c **** *  None
  32:Generated_Source\PSoC4/Count1.c **** *
  33:Generated_Source\PSoC4/Count1.c **** * Return:
  34:Generated_Source\PSoC4/Count1.c **** *  None
  35:Generated_Source\PSoC4/Count1.c **** *
  36:Generated_Source\PSoC4/Count1.c **** * Theory:
  37:Generated_Source\PSoC4/Count1.c **** *  It is not necessary to call Count7_Init() because the Count7_Start() API
  38:Generated_Source\PSoC4/Count1.c **** *  calls this function and is the preferred method to begin component
  39:Generated_Source\PSoC4/Count1.c **** *  operation.
  40:Generated_Source\PSoC4/Count1.c **** *
  41:Generated_Source\PSoC4/Count1.c **** *******************************************************************************/
  42:Generated_Source\PSoC4/Count1.c **** void Count1_Init(void) 
  43:Generated_Source\PSoC4/Count1.c **** {
  28              		.loc 1 43 0
  29              		.cfi_startproc
  30              		@ args = 0, pretend = 0, frame = 0
  31              		@ frame_needed = 0, uses_anonymous_args = 0
  32              		@ link register save eliminated.
  44:Generated_Source\PSoC4/Count1.c ****     /* Set the initial period value from parameter editor */
  45:Generated_Source\PSoC4/Count1.c ****     Count1_PERIOD_REG = Count1_INITIAL_PERIOD;
  33              		.loc 1 45 0
  34 0000 6422     		movs	r2, #100
  35 0002 014B     		ldr	r3, .L2
  36 0004 1A70     		strb	r2, [r3]
  46:Generated_Source\PSoC4/Count1.c **** }
  37              		.loc 1 46 0
  38              		@ sp needed
  39 0006 7047     		bx	lr
  40              	.L3:
  41              		.align	2
  42              	.L2:
  43 0008 81000F40 		.word	1074724993
  44              		.cfi_endproc
  45              	.LFE1:
  46              		.size	Count1_Init, .-Count1_Init
  47              		.section	.text.Count1_Enable,"ax",%progbits
  48              		.align	2
  49              		.global	Count1_Enable
  50              		.code	16
  51              		.thumb_func
  52              		.type	Count1_Enable, %function
  53              	Count1_Enable:
  54              	.LFB2:
  47:Generated_Source\PSoC4/Count1.c **** 
  48:Generated_Source\PSoC4/Count1.c **** 
  49:Generated_Source\PSoC4/Count1.c **** /*******************************************************************************
  50:Generated_Source\PSoC4/Count1.c **** * Function Name: Count1_Enable
  51:Generated_Source\PSoC4/Count1.c **** ********************************************************************************
  52:Generated_Source\PSoC4/Count1.c **** *
  53:Generated_Source\PSoC4/Count1.c **** * Summary:
  54:Generated_Source\PSoC4/Count1.c **** *  Enables the software enable of the counter.
  55:Generated_Source\PSoC4/Count1.c **** *
  56:Generated_Source\PSoC4/Count1.c **** * Parameters:
  57:Generated_Source\PSoC4/Count1.c **** *  None
  58:Generated_Source\PSoC4/Count1.c **** *
  59:Generated_Source\PSoC4/Count1.c **** * Return:
  60:Generated_Source\PSoC4/Count1.c **** *  None
ARM GAS  C:\Users\mac_000\AppData\Local\Temp\ccfkNUHS.s 			page 3


  61:Generated_Source\PSoC4/Count1.c **** *
  62:Generated_Source\PSoC4/Count1.c **** * Theory:
  63:Generated_Source\PSoC4/Count1.c **** *  It is not necessary to call Count7_Enable() because the Count7_Start() API
  64:Generated_Source\PSoC4/Count1.c **** *  calls this function, which is the preferred method to begin component
  65:Generated_Source\PSoC4/Count1.c **** *  operation.
  66:Generated_Source\PSoC4/Count1.c **** *  This API performs modification of auxiliary control register which is a
  67:Generated_Source\PSoC4/Count1.c **** *  shared resource so it is required to disable interrupts until the
  68:Generated_Source\PSoC4/Count1.c **** *  modification will complete.
  69:Generated_Source\PSoC4/Count1.c **** *
  70:Generated_Source\PSoC4/Count1.c **** *******************************************************************************/
  71:Generated_Source\PSoC4/Count1.c **** void Count1_Enable(void) 
  72:Generated_Source\PSoC4/Count1.c **** {
  55              		.loc 1 72 0
  56              		.cfi_startproc
  57              		@ args = 0, pretend = 0, frame = 0
  58              		@ frame_needed = 0, uses_anonymous_args = 0
  59 0000 10B5     		push	{r4, lr}
  60              		.cfi_def_cfa_offset 8
  61              		.cfi_offset 4, -8
  62              		.cfi_offset 14, -4
  73:Generated_Source\PSoC4/Count1.c ****     uint8 interruptState;
  74:Generated_Source\PSoC4/Count1.c **** 
  75:Generated_Source\PSoC4/Count1.c ****     interruptState = CyEnterCriticalSection();
  63              		.loc 1 75 0
  64 0002 FFF7FEFF 		bl	CyEnterCriticalSection
  65              	.LVL0:
  76:Generated_Source\PSoC4/Count1.c ****     /* Set the counter start bit in auxiliary control. If routed enable
  77:Generated_Source\PSoC4/Count1.c ****     * isn't used then this will immediately star the Count7 operation.
  78:Generated_Source\PSoC4/Count1.c ****     */
  79:Generated_Source\PSoC4/Count1.c ****     Count1_AUX_CONTROL_REG |= Count1_COUNTER_START;
  66              		.loc 1 79 0
  67 0006 044A     		ldr	r2, .L5
  68 0008 1178     		ldrb	r1, [r2]
  69 000a 2023     		movs	r3, #32
  70 000c 0B43     		orrs	r3, r1
  71 000e DBB2     		uxtb	r3, r3
  72 0010 1370     		strb	r3, [r2]
  80:Generated_Source\PSoC4/Count1.c **** 
  81:Generated_Source\PSoC4/Count1.c ****     CyExitCriticalSection(interruptState);
  73              		.loc 1 81 0
  74 0012 FFF7FEFF 		bl	CyExitCriticalSection
  75              	.LVL1:
  82:Generated_Source\PSoC4/Count1.c **** }
  76              		.loc 1 82 0
  77              		@ sp needed
  78 0016 10BD     		pop	{r4, pc}
  79              	.L6:
  80              		.align	2
  81              	.L5:
  82 0018 91000F40 		.word	1074725009
  83              		.cfi_endproc
  84              	.LFE2:
  85              		.size	Count1_Enable, .-Count1_Enable
  86              		.section	.text.Count1_Start,"ax",%progbits
  87              		.align	2
  88              		.global	Count1_Start
  89              		.code	16
ARM GAS  C:\Users\mac_000\AppData\Local\Temp\ccfkNUHS.s 			page 4


  90              		.thumb_func
  91              		.type	Count1_Start, %function
  92              	Count1_Start:
  93              	.LFB3:
  83:Generated_Source\PSoC4/Count1.c **** 
  84:Generated_Source\PSoC4/Count1.c **** 
  85:Generated_Source\PSoC4/Count1.c **** /*******************************************************************************
  86:Generated_Source\PSoC4/Count1.c **** * Function Name: Count1_Start
  87:Generated_Source\PSoC4/Count1.c **** ********************************************************************************
  88:Generated_Source\PSoC4/Count1.c **** *
  89:Generated_Source\PSoC4/Count1.c **** * Summary:
  90:Generated_Source\PSoC4/Count1.c **** *  Performs all of the required initialization for the component and enables
  91:Generated_Source\PSoC4/Count1.c **** *  the counter. The first time the routine is executed, the period is set as
  92:Generated_Source\PSoC4/Count1.c **** *  configured in the customizer. When called to restart the counter following a
  93:Generated_Source\PSoC4/Count1.c **** *  Count7_Stop() call, the current period value is retained.
  94:Generated_Source\PSoC4/Count1.c **** *
  95:Generated_Source\PSoC4/Count1.c **** * Parameters:
  96:Generated_Source\PSoC4/Count1.c **** *  None.
  97:Generated_Source\PSoC4/Count1.c **** *
  98:Generated_Source\PSoC4/Count1.c **** * Global Variables:
  99:Generated_Source\PSoC4/Count1.c **** *  Count1_initVar - global variable.
 100:Generated_Source\PSoC4/Count1.c **** *
 101:Generated_Source\PSoC4/Count1.c **** * Return:
 102:Generated_Source\PSoC4/Count1.c **** *  None.
 103:Generated_Source\PSoC4/Count1.c **** *
 104:Generated_Source\PSoC4/Count1.c **** *******************************************************************************/
 105:Generated_Source\PSoC4/Count1.c **** void Count1_Start(void) 
 106:Generated_Source\PSoC4/Count1.c **** {
  94              		.loc 1 106 0
  95              		.cfi_startproc
  96              		@ args = 0, pretend = 0, frame = 0
  97              		@ frame_needed = 0, uses_anonymous_args = 0
  98 0000 10B5     		push	{r4, lr}
  99              		.cfi_def_cfa_offset 8
 100              		.cfi_offset 4, -8
 101              		.cfi_offset 14, -4
 107:Generated_Source\PSoC4/Count1.c ****     /* If not initialized then perform initialization */
 108:Generated_Source\PSoC4/Count1.c ****     if(Count1_initVar == 0u)
 102              		.loc 1 108 0
 103 0002 064B     		ldr	r3, .L9
 104 0004 1B78     		ldrb	r3, [r3]
 105 0006 002B     		cmp	r3, #0
 106 0008 04D1     		bne	.L8
 109:Generated_Source\PSoC4/Count1.c ****     {
 110:Generated_Source\PSoC4/Count1.c ****         Count1_Init();
 107              		.loc 1 110 0
 108 000a FFF7FEFF 		bl	Count1_Init
 109              	.LVL2:
 111:Generated_Source\PSoC4/Count1.c ****         Count1_initVar = 1u;
 110              		.loc 1 111 0
 111 000e 0122     		movs	r2, #1
 112 0010 024B     		ldr	r3, .L9
 113 0012 1A70     		strb	r2, [r3]
 114              	.L8:
 112:Generated_Source\PSoC4/Count1.c ****     }
 113:Generated_Source\PSoC4/Count1.c **** 
 114:Generated_Source\PSoC4/Count1.c ****     /* Enable Count7 */
ARM GAS  C:\Users\mac_000\AppData\Local\Temp\ccfkNUHS.s 			page 5


 115:Generated_Source\PSoC4/Count1.c ****     Count1_Enable();
 115              		.loc 1 115 0
 116 0014 FFF7FEFF 		bl	Count1_Enable
 117              	.LVL3:
 116:Generated_Source\PSoC4/Count1.c **** }
 118              		.loc 1 116 0
 119              		@ sp needed
 120 0018 10BD     		pop	{r4, pc}
 121              	.L10:
 122 001a C046     		.align	2
 123              	.L9:
 124 001c 00000000 		.word	.LANCHOR0
 125              		.cfi_endproc
 126              	.LFE3:
 127              		.size	Count1_Start, .-Count1_Start
 128              		.section	.text.Count1_Stop,"ax",%progbits
 129              		.align	2
 130              		.global	Count1_Stop
 131              		.code	16
 132              		.thumb_func
 133              		.type	Count1_Stop, %function
 134              	Count1_Stop:
 135              	.LFB4:
 117:Generated_Source\PSoC4/Count1.c **** 
 118:Generated_Source\PSoC4/Count1.c **** 
 119:Generated_Source\PSoC4/Count1.c **** /*******************************************************************************
 120:Generated_Source\PSoC4/Count1.c **** * Function Name: Count1_Stop
 121:Generated_Source\PSoC4/Count1.c **** ********************************************************************************
 122:Generated_Source\PSoC4/Count1.c **** *
 123:Generated_Source\PSoC4/Count1.c **** * Summary:
 124:Generated_Source\PSoC4/Count1.c **** *  Disables the software enable of the counter.
 125:Generated_Source\PSoC4/Count1.c **** *
 126:Generated_Source\PSoC4/Count1.c **** * Parameters:
 127:Generated_Source\PSoC4/Count1.c **** *  None
 128:Generated_Source\PSoC4/Count1.c **** *
 129:Generated_Source\PSoC4/Count1.c **** * Return:
 130:Generated_Source\PSoC4/Count1.c **** *  None
 131:Generated_Source\PSoC4/Count1.c **** *
 132:Generated_Source\PSoC4/Count1.c **** *******************************************************************************/
 133:Generated_Source\PSoC4/Count1.c **** void Count1_Stop(void) 
 134:Generated_Source\PSoC4/Count1.c **** {
 136              		.loc 1 134 0
 137              		.cfi_startproc
 138              		@ args = 0, pretend = 0, frame = 0
 139              		@ frame_needed = 0, uses_anonymous_args = 0
 140 0000 10B5     		push	{r4, lr}
 141              		.cfi_def_cfa_offset 8
 142              		.cfi_offset 4, -8
 143              		.cfi_offset 14, -4
 135:Generated_Source\PSoC4/Count1.c ****     uint8 interruptState;
 136:Generated_Source\PSoC4/Count1.c **** 
 137:Generated_Source\PSoC4/Count1.c ****     interruptState = CyEnterCriticalSection();
 144              		.loc 1 137 0
 145 0002 FFF7FEFF 		bl	CyEnterCriticalSection
 146              	.LVL4:
 138:Generated_Source\PSoC4/Count1.c ****     /* Clear the counter start bit in auxiliary control. */
 139:Generated_Source\PSoC4/Count1.c ****     Count1_AUX_CONTROL_REG &= (uint8) ~((uint8) Count1_COUNTER_START);
ARM GAS  C:\Users\mac_000\AppData\Local\Temp\ccfkNUHS.s 			page 6


 147              		.loc 1 139 0
 148 0006 044A     		ldr	r2, .L12
 149 0008 1378     		ldrb	r3, [r2]
 150 000a 2021     		movs	r1, #32
 151 000c 8B43     		bics	r3, r1
 152 000e 1370     		strb	r3, [r2]
 140:Generated_Source\PSoC4/Count1.c **** 
 141:Generated_Source\PSoC4/Count1.c ****     CyExitCriticalSection(interruptState);
 153              		.loc 1 141 0
 154 0010 FFF7FEFF 		bl	CyExitCriticalSection
 155              	.LVL5:
 142:Generated_Source\PSoC4/Count1.c **** }
 156              		.loc 1 142 0
 157              		@ sp needed
 158 0014 10BD     		pop	{r4, pc}
 159              	.L13:
 160 0016 C046     		.align	2
 161              	.L12:
 162 0018 91000F40 		.word	1074725009
 163              		.cfi_endproc
 164              	.LFE4:
 165              		.size	Count1_Stop, .-Count1_Stop
 166              		.section	.text.Count1_WriteCounter,"ax",%progbits
 167              		.align	2
 168              		.global	Count1_WriteCounter
 169              		.code	16
 170              		.thumb_func
 171              		.type	Count1_WriteCounter, %function
 172              	Count1_WriteCounter:
 173              	.LFB5:
 143:Generated_Source\PSoC4/Count1.c **** 
 144:Generated_Source\PSoC4/Count1.c **** 
 145:Generated_Source\PSoC4/Count1.c **** /*******************************************************************************
 146:Generated_Source\PSoC4/Count1.c **** * Function Name: Count1_WriteCounter
 147:Generated_Source\PSoC4/Count1.c **** ********************************************************************************
 148:Generated_Source\PSoC4/Count1.c **** *
 149:Generated_Source\PSoC4/Count1.c **** * Summary:
 150:Generated_Source\PSoC4/Count1.c **** *  This function writes the counter directly. The counter should be disabled
 151:Generated_Source\PSoC4/Count1.c **** *  before calling this function.
 152:Generated_Source\PSoC4/Count1.c **** *
 153:Generated_Source\PSoC4/Count1.c **** * Parameters:
 154:Generated_Source\PSoC4/Count1.c **** *  count - Value to be written to counter.
 155:Generated_Source\PSoC4/Count1.c **** *
 156:Generated_Source\PSoC4/Count1.c **** * Return:
 157:Generated_Source\PSoC4/Count1.c **** *  None
 158:Generated_Source\PSoC4/Count1.c **** *
 159:Generated_Source\PSoC4/Count1.c **** *******************************************************************************/
 160:Generated_Source\PSoC4/Count1.c **** void Count1_WriteCounter(uint8 count) 
 161:Generated_Source\PSoC4/Count1.c **** {
 174              		.loc 1 161 0
 175              		.cfi_startproc
 176              		@ args = 0, pretend = 0, frame = 0
 177              		@ frame_needed = 0, uses_anonymous_args = 0
 178              		@ link register save eliminated.
 179              	.LVL6:
 162:Generated_Source\PSoC4/Count1.c ****     Count1_COUNT_REG = (count & Count1_COUNT_7BIT_MASK);
 180              		.loc 1 162 0
ARM GAS  C:\Users\mac_000\AppData\Local\Temp\ccfkNUHS.s 			page 7


 181 0000 7F23     		movs	r3, #127
 182 0002 1840     		ands	r0, r3
 183              	.LVL7:
 184 0004 014B     		ldr	r3, .L15
 185 0006 1870     		strb	r0, [r3]
 163:Generated_Source\PSoC4/Count1.c **** }
 186              		.loc 1 163 0
 187              		@ sp needed
 188 0008 7047     		bx	lr
 189              	.L16:
 190 000a C046     		.align	2
 191              	.L15:
 192 000c 71000F40 		.word	1074724977
 193              		.cfi_endproc
 194              	.LFE5:
 195              		.size	Count1_WriteCounter, .-Count1_WriteCounter
 196              		.section	.text.Count1_ReadCounter,"ax",%progbits
 197              		.align	2
 198              		.global	Count1_ReadCounter
 199              		.code	16
 200              		.thumb_func
 201              		.type	Count1_ReadCounter, %function
 202              	Count1_ReadCounter:
 203              	.LFB6:
 164:Generated_Source\PSoC4/Count1.c **** 
 165:Generated_Source\PSoC4/Count1.c **** 
 166:Generated_Source\PSoC4/Count1.c **** /*******************************************************************************
 167:Generated_Source\PSoC4/Count1.c **** * Function Name: Count1_ReadCounter
 168:Generated_Source\PSoC4/Count1.c **** ********************************************************************************
 169:Generated_Source\PSoC4/Count1.c **** *
 170:Generated_Source\PSoC4/Count1.c **** * Summary:
 171:Generated_Source\PSoC4/Count1.c **** *  This function reads the counter value.
 172:Generated_Source\PSoC4/Count1.c **** *
 173:Generated_Source\PSoC4/Count1.c **** * Parameters:
 174:Generated_Source\PSoC4/Count1.c **** *  None
 175:Generated_Source\PSoC4/Count1.c **** *
 176:Generated_Source\PSoC4/Count1.c **** * Return:
 177:Generated_Source\PSoC4/Count1.c **** *  None
 178:Generated_Source\PSoC4/Count1.c **** *
 179:Generated_Source\PSoC4/Count1.c **** *******************************************************************************/
 180:Generated_Source\PSoC4/Count1.c **** uint8 Count1_ReadCounter(void) 
 181:Generated_Source\PSoC4/Count1.c **** {
 204              		.loc 1 181 0
 205              		.cfi_startproc
 206              		@ args = 0, pretend = 0, frame = 0
 207              		@ frame_needed = 0, uses_anonymous_args = 0
 208              		@ link register save eliminated.
 182:Generated_Source\PSoC4/Count1.c ****     return(Count1_COUNT_REG & Count1_COUNT_7BIT_MASK);
 209              		.loc 1 182 0
 210 0000 024B     		ldr	r3, .L18
 211 0002 1878     		ldrb	r0, [r3]
 212 0004 7F23     		movs	r3, #127
 213 0006 1840     		ands	r0, r3
 183:Generated_Source\PSoC4/Count1.c **** }
 214              		.loc 1 183 0
 215              		@ sp needed
 216 0008 7047     		bx	lr
ARM GAS  C:\Users\mac_000\AppData\Local\Temp\ccfkNUHS.s 			page 8


 217              	.L19:
 218 000a C046     		.align	2
 219              	.L18:
 220 000c 71000F40 		.word	1074724977
 221              		.cfi_endproc
 222              	.LFE6:
 223              		.size	Count1_ReadCounter, .-Count1_ReadCounter
 224              		.section	.text.Count1_WritePeriod,"ax",%progbits
 225              		.align	2
 226              		.global	Count1_WritePeriod
 227              		.code	16
 228              		.thumb_func
 229              		.type	Count1_WritePeriod, %function
 230              	Count1_WritePeriod:
 231              	.LFB7:
 184:Generated_Source\PSoC4/Count1.c **** 
 185:Generated_Source\PSoC4/Count1.c **** 
 186:Generated_Source\PSoC4/Count1.c **** /*******************************************************************************
 187:Generated_Source\PSoC4/Count1.c **** * Function Name: Count1_WritePeriod
 188:Generated_Source\PSoC4/Count1.c **** ********************************************************************************
 189:Generated_Source\PSoC4/Count1.c **** *
 190:Generated_Source\PSoC4/Count1.c **** * Summary:
 191:Generated_Source\PSoC4/Count1.c **** *  This function writes the period register. The actual period is one greater
 192:Generated_Source\PSoC4/Count1.c **** *  than the value in the period register since the counting sequence starts
 193:Generated_Source\PSoC4/Count1.c **** *  with the period register and counts down to 0 inclusive. The period of the
 194:Generated_Source\PSoC4/Count1.c **** *  counter output does not change until the counter is reloaded following the
 195:Generated_Source\PSoC4/Count1.c **** *  terminal count value of 0 or due to a hardware load signal.
 196:Generated_Source\PSoC4/Count1.c **** *
 197:Generated_Source\PSoC4/Count1.c **** * Parameters:
 198:Generated_Source\PSoC4/Count1.c **** *  period - Period value to be written.
 199:Generated_Source\PSoC4/Count1.c **** *
 200:Generated_Source\PSoC4/Count1.c **** * Return:
 201:Generated_Source\PSoC4/Count1.c **** *  None
 202:Generated_Source\PSoC4/Count1.c **** *
 203:Generated_Source\PSoC4/Count1.c **** *******************************************************************************/
 204:Generated_Source\PSoC4/Count1.c **** void Count1_WritePeriod(uint8 period) 
 205:Generated_Source\PSoC4/Count1.c **** {
 232              		.loc 1 205 0
 233              		.cfi_startproc
 234              		@ args = 0, pretend = 0, frame = 0
 235              		@ frame_needed = 0, uses_anonymous_args = 0
 236              		@ link register save eliminated.
 237              	.LVL8:
 206:Generated_Source\PSoC4/Count1.c ****     Count1_PERIOD_REG = period;
 238              		.loc 1 206 0
 239 0000 014B     		ldr	r3, .L21
 240 0002 1870     		strb	r0, [r3]
 207:Generated_Source\PSoC4/Count1.c **** }
 241              		.loc 1 207 0
 242              		@ sp needed
 243 0004 7047     		bx	lr
 244              	.L22:
 245 0006 C046     		.align	2
 246              	.L21:
 247 0008 81000F40 		.word	1074724993
 248              		.cfi_endproc
 249              	.LFE7:
ARM GAS  C:\Users\mac_000\AppData\Local\Temp\ccfkNUHS.s 			page 9


 250              		.size	Count1_WritePeriod, .-Count1_WritePeriod
 251              		.section	.text.Count1_ReadPeriod,"ax",%progbits
 252              		.align	2
 253              		.global	Count1_ReadPeriod
 254              		.code	16
 255              		.thumb_func
 256              		.type	Count1_ReadPeriod, %function
 257              	Count1_ReadPeriod:
 258              	.LFB8:
 208:Generated_Source\PSoC4/Count1.c **** 
 209:Generated_Source\PSoC4/Count1.c **** 
 210:Generated_Source\PSoC4/Count1.c **** /*******************************************************************************
 211:Generated_Source\PSoC4/Count1.c **** * Function Name: Count1_ReadPeriod
 212:Generated_Source\PSoC4/Count1.c **** ********************************************************************************
 213:Generated_Source\PSoC4/Count1.c **** *
 214:Generated_Source\PSoC4/Count1.c **** * Summary:
 215:Generated_Source\PSoC4/Count1.c **** *  This function reads the period register.
 216:Generated_Source\PSoC4/Count1.c **** *
 217:Generated_Source\PSoC4/Count1.c **** * Parameters:
 218:Generated_Source\PSoC4/Count1.c **** *  None
 219:Generated_Source\PSoC4/Count1.c **** *
 220:Generated_Source\PSoC4/Count1.c **** * Return:
 221:Generated_Source\PSoC4/Count1.c **** *  uint8 - Current period value.
 222:Generated_Source\PSoC4/Count1.c **** *
 223:Generated_Source\PSoC4/Count1.c **** *******************************************************************************/
 224:Generated_Source\PSoC4/Count1.c **** uint8 Count1_ReadPeriod(void) 
 225:Generated_Source\PSoC4/Count1.c **** {
 259              		.loc 1 225 0
 260              		.cfi_startproc
 261              		@ args = 0, pretend = 0, frame = 0
 262              		@ frame_needed = 0, uses_anonymous_args = 0
 263              		@ link register save eliminated.
 226:Generated_Source\PSoC4/Count1.c ****     return(Count1_PERIOD_REG);
 264              		.loc 1 226 0
 265 0000 014B     		ldr	r3, .L24
 266 0002 1878     		ldrb	r0, [r3]
 267 0004 C0B2     		uxtb	r0, r0
 227:Generated_Source\PSoC4/Count1.c **** }
 268              		.loc 1 227 0
 269              		@ sp needed
 270 0006 7047     		bx	lr
 271              	.L25:
 272              		.align	2
 273              	.L24:
 274 0008 81000F40 		.word	1074724993
 275              		.cfi_endproc
 276              	.LFE8:
 277              		.size	Count1_ReadPeriod, .-Count1_ReadPeriod
 278              		.global	Count1_initVar
 279              		.bss
 280              		.set	.LANCHOR0,. + 0
 281              		.type	Count1_initVar, %object
 282              		.size	Count1_initVar, 1
 283              	Count1_initVar:
 284 0000 00       		.space	1
 285              		.text
 286              	.Letext0:
ARM GAS  C:\Users\mac_000\AppData\Local\Temp\ccfkNUHS.s 			page 10


 287              		.file 2 "Generated_Source\\PSoC4\\cytypes.h"
 288              		.file 3 "Generated_Source\\PSoC4\\CyLib.h"