ARM GAS  C:\Users\mac_000\AppData\Local\Temp\ccHYHBYg.s 			page 1


   1              		.syntax unified
   2              		.cpu cortex-m0
   3              		.fpu softvfp
   4              		.eabi_attribute 20, 1
   5              		.eabi_attribute 21, 1
   6              		.eabi_attribute 23, 3
   7              		.eabi_attribute 24, 1
   8              		.eabi_attribute 25, 1
   9              		.eabi_attribute 26, 1
  10              		.eabi_attribute 30, 1
  11              		.eabi_attribute 34, 0
  12              		.eabi_attribute 18, 4
  13              		.thumb
  14              		.syntax unified
  15              		.file	"Timer1.c"
  16              		.text
  17              	.Ltext0:
  18              		.cfi_sections	.debug_frame
  19              		.section	.text.Timer1_Stop,"ax",%progbits
  20              		.align	2
  21              		.global	Timer1_Stop
  22              		.code	16
  23              		.thumb_func
  24              		.type	Timer1_Stop, %function
  25              	Timer1_Stop:
  26              	.LFB3:
  27              		.file 1 "Generated_Source\\PSoC4\\Timer1.c"
   1:Generated_Source\PSoC4/Timer1.c **** /*******************************************************************************
   2:Generated_Source\PSoC4/Timer1.c **** * File Name: Timer1.c
   3:Generated_Source\PSoC4/Timer1.c **** * Version 2.10
   4:Generated_Source\PSoC4/Timer1.c **** *
   5:Generated_Source\PSoC4/Timer1.c **** * Description:
   6:Generated_Source\PSoC4/Timer1.c **** *  This file provides the source code to the API for the Timer1
   7:Generated_Source\PSoC4/Timer1.c **** *  component
   8:Generated_Source\PSoC4/Timer1.c **** *
   9:Generated_Source\PSoC4/Timer1.c **** * Note:
  10:Generated_Source\PSoC4/Timer1.c **** *  None
  11:Generated_Source\PSoC4/Timer1.c **** *
  12:Generated_Source\PSoC4/Timer1.c **** ********************************************************************************
  13:Generated_Source\PSoC4/Timer1.c **** * Copyright 2013-2015, Cypress Semiconductor Corporation.  All rights reserved.
  14:Generated_Source\PSoC4/Timer1.c **** * You may use this file only in accordance with the license, terms, conditions,
  15:Generated_Source\PSoC4/Timer1.c **** * disclaimers, and limitations in the end user license agreement accompanying
  16:Generated_Source\PSoC4/Timer1.c **** * the software package with which this file was provided.
  17:Generated_Source\PSoC4/Timer1.c **** *******************************************************************************/
  18:Generated_Source\PSoC4/Timer1.c **** 
  19:Generated_Source\PSoC4/Timer1.c **** #include "Timer1.h"
  20:Generated_Source\PSoC4/Timer1.c **** 
  21:Generated_Source\PSoC4/Timer1.c **** uint8 Timer1_initVar = 0u;
  22:Generated_Source\PSoC4/Timer1.c **** 
  23:Generated_Source\PSoC4/Timer1.c **** 
  24:Generated_Source\PSoC4/Timer1.c **** /*******************************************************************************
  25:Generated_Source\PSoC4/Timer1.c **** * Function Name: Timer1_Init
  26:Generated_Source\PSoC4/Timer1.c **** ********************************************************************************
  27:Generated_Source\PSoC4/Timer1.c **** *
  28:Generated_Source\PSoC4/Timer1.c **** * Summary:
  29:Generated_Source\PSoC4/Timer1.c **** *  Initialize/Restore default Timer1 configuration.
  30:Generated_Source\PSoC4/Timer1.c **** *
ARM GAS  C:\Users\mac_000\AppData\Local\Temp\ccHYHBYg.s 			page 2


  31:Generated_Source\PSoC4/Timer1.c **** * Parameters:
  32:Generated_Source\PSoC4/Timer1.c **** *  None
  33:Generated_Source\PSoC4/Timer1.c **** *
  34:Generated_Source\PSoC4/Timer1.c **** * Return:
  35:Generated_Source\PSoC4/Timer1.c **** *  None
  36:Generated_Source\PSoC4/Timer1.c **** *
  37:Generated_Source\PSoC4/Timer1.c **** *******************************************************************************/
  38:Generated_Source\PSoC4/Timer1.c **** void Timer1_Init(void)
  39:Generated_Source\PSoC4/Timer1.c **** {
  40:Generated_Source\PSoC4/Timer1.c **** 
  41:Generated_Source\PSoC4/Timer1.c ****     /* Set values from customizer to CTRL */
  42:Generated_Source\PSoC4/Timer1.c ****     #if (Timer1__QUAD == Timer1_CONFIG)
  43:Generated_Source\PSoC4/Timer1.c ****         Timer1_CONTROL_REG = Timer1_CTRL_QUAD_BASE_CONFIG;
  44:Generated_Source\PSoC4/Timer1.c ****         
  45:Generated_Source\PSoC4/Timer1.c ****         /* Set values from customizer to CTRL1 */
  46:Generated_Source\PSoC4/Timer1.c ****         Timer1_TRIG_CONTROL1_REG  = Timer1_QUAD_SIGNALS_MODES;
  47:Generated_Source\PSoC4/Timer1.c **** 
  48:Generated_Source\PSoC4/Timer1.c ****         /* Set values from customizer to INTR */
  49:Generated_Source\PSoC4/Timer1.c ****         Timer1_SetInterruptMode(Timer1_QUAD_INTERRUPT_MASK);
  50:Generated_Source\PSoC4/Timer1.c ****         
  51:Generated_Source\PSoC4/Timer1.c ****          /* Set other values */
  52:Generated_Source\PSoC4/Timer1.c ****         Timer1_SetCounterMode(Timer1_COUNT_DOWN);
  53:Generated_Source\PSoC4/Timer1.c ****         Timer1_WritePeriod(Timer1_QUAD_PERIOD_INIT_VALUE);
  54:Generated_Source\PSoC4/Timer1.c ****         Timer1_WriteCounter(Timer1_QUAD_PERIOD_INIT_VALUE);
  55:Generated_Source\PSoC4/Timer1.c ****     #endif  /* (Timer1__QUAD == Timer1_CONFIG) */
  56:Generated_Source\PSoC4/Timer1.c **** 
  57:Generated_Source\PSoC4/Timer1.c ****     #if (Timer1__TIMER == Timer1_CONFIG)
  58:Generated_Source\PSoC4/Timer1.c ****         Timer1_CONTROL_REG = Timer1_CTRL_TIMER_BASE_CONFIG;
  59:Generated_Source\PSoC4/Timer1.c ****         
  60:Generated_Source\PSoC4/Timer1.c ****         /* Set values from customizer to CTRL1 */
  61:Generated_Source\PSoC4/Timer1.c ****         Timer1_TRIG_CONTROL1_REG  = Timer1_TIMER_SIGNALS_MODES;
  62:Generated_Source\PSoC4/Timer1.c ****     
  63:Generated_Source\PSoC4/Timer1.c ****         /* Set values from customizer to INTR */
  64:Generated_Source\PSoC4/Timer1.c ****         Timer1_SetInterruptMode(Timer1_TC_INTERRUPT_MASK);
  65:Generated_Source\PSoC4/Timer1.c ****         
  66:Generated_Source\PSoC4/Timer1.c ****         /* Set other values from customizer */
  67:Generated_Source\PSoC4/Timer1.c ****         Timer1_WritePeriod(Timer1_TC_PERIOD_VALUE );
  68:Generated_Source\PSoC4/Timer1.c **** 
  69:Generated_Source\PSoC4/Timer1.c ****         #if (Timer1__COMPARE == Timer1_TC_COMP_CAP_MODE)
  70:Generated_Source\PSoC4/Timer1.c ****             Timer1_WriteCompare(Timer1_TC_COMPARE_VALUE);
  71:Generated_Source\PSoC4/Timer1.c **** 
  72:Generated_Source\PSoC4/Timer1.c ****             #if (1u == Timer1_TC_COMPARE_SWAP)
  73:Generated_Source\PSoC4/Timer1.c ****                 Timer1_SetCompareSwap(1u);
  74:Generated_Source\PSoC4/Timer1.c ****                 Timer1_WriteCompareBuf(Timer1_TC_COMPARE_BUF_VALUE);
  75:Generated_Source\PSoC4/Timer1.c ****             #endif  /* (1u == Timer1_TC_COMPARE_SWAP) */
  76:Generated_Source\PSoC4/Timer1.c ****         #endif  /* (Timer1__COMPARE == Timer1_TC_COMP_CAP_MODE) */
  77:Generated_Source\PSoC4/Timer1.c **** 
  78:Generated_Source\PSoC4/Timer1.c ****         /* Initialize counter value */
  79:Generated_Source\PSoC4/Timer1.c ****         #if (Timer1_CY_TCPWM_V2 && Timer1_TIMER_UPDOWN_CNT_USED && !Timer1_CY_TCPWM_4000)
  80:Generated_Source\PSoC4/Timer1.c ****             Timer1_WriteCounter(1u);
  81:Generated_Source\PSoC4/Timer1.c ****         #elif(Timer1__COUNT_DOWN == Timer1_TC_COUNTER_MODE)
  82:Generated_Source\PSoC4/Timer1.c ****             Timer1_WriteCounter(Timer1_TC_PERIOD_VALUE);
  83:Generated_Source\PSoC4/Timer1.c ****         #else
  84:Generated_Source\PSoC4/Timer1.c ****             Timer1_WriteCounter(0u);
  85:Generated_Source\PSoC4/Timer1.c ****         #endif /* (Timer1_CY_TCPWM_V2 && Timer1_TIMER_UPDOWN_CNT_USED && !Timer1_CY_TCPWM_4000) */
  86:Generated_Source\PSoC4/Timer1.c ****     #endif  /* (Timer1__TIMER == Timer1_CONFIG) */
  87:Generated_Source\PSoC4/Timer1.c **** 
ARM GAS  C:\Users\mac_000\AppData\Local\Temp\ccHYHBYg.s 			page 3


  88:Generated_Source\PSoC4/Timer1.c ****     #if (Timer1__PWM_SEL == Timer1_CONFIG)
  89:Generated_Source\PSoC4/Timer1.c ****         Timer1_CONTROL_REG = Timer1_CTRL_PWM_BASE_CONFIG;
  90:Generated_Source\PSoC4/Timer1.c **** 
  91:Generated_Source\PSoC4/Timer1.c ****         #if (Timer1__PWM_PR == Timer1_PWM_MODE)
  92:Generated_Source\PSoC4/Timer1.c ****             Timer1_CONTROL_REG |= Timer1_CTRL_PWM_RUN_MODE;
  93:Generated_Source\PSoC4/Timer1.c ****             Timer1_WriteCounter(Timer1_PWM_PR_INIT_VALUE);
  94:Generated_Source\PSoC4/Timer1.c ****         #else
  95:Generated_Source\PSoC4/Timer1.c ****             Timer1_CONTROL_REG |= Timer1_CTRL_PWM_ALIGN | Timer1_CTRL_PWM_KILL_EVENT;
  96:Generated_Source\PSoC4/Timer1.c ****             
  97:Generated_Source\PSoC4/Timer1.c ****             /* Initialize counter value */
  98:Generated_Source\PSoC4/Timer1.c ****             #if (Timer1_CY_TCPWM_V2 && Timer1_PWM_UPDOWN_CNT_USED && !Timer1_CY_TCPWM_4000)
  99:Generated_Source\PSoC4/Timer1.c ****                 Timer1_WriteCounter(1u);
 100:Generated_Source\PSoC4/Timer1.c ****             #elif (Timer1__RIGHT == Timer1_PWM_ALIGN)
 101:Generated_Source\PSoC4/Timer1.c ****                 Timer1_WriteCounter(Timer1_PWM_PERIOD_VALUE);
 102:Generated_Source\PSoC4/Timer1.c ****             #else 
 103:Generated_Source\PSoC4/Timer1.c ****                 Timer1_WriteCounter(0u);
 104:Generated_Source\PSoC4/Timer1.c ****             #endif  /* (Timer1_CY_TCPWM_V2 && Timer1_PWM_UPDOWN_CNT_USED && !Timer1_CY_TCPWM_4000) 
 105:Generated_Source\PSoC4/Timer1.c ****         #endif  /* (Timer1__PWM_PR == Timer1_PWM_MODE) */
 106:Generated_Source\PSoC4/Timer1.c **** 
 107:Generated_Source\PSoC4/Timer1.c ****         #if (Timer1__PWM_DT == Timer1_PWM_MODE)
 108:Generated_Source\PSoC4/Timer1.c ****             Timer1_CONTROL_REG |= Timer1_CTRL_PWM_DEAD_TIME_CYCLE;
 109:Generated_Source\PSoC4/Timer1.c ****         #endif  /* (Timer1__PWM_DT == Timer1_PWM_MODE) */
 110:Generated_Source\PSoC4/Timer1.c **** 
 111:Generated_Source\PSoC4/Timer1.c ****         #if (Timer1__PWM == Timer1_PWM_MODE)
 112:Generated_Source\PSoC4/Timer1.c ****             Timer1_CONTROL_REG |= Timer1_CTRL_PWM_PRESCALER;
 113:Generated_Source\PSoC4/Timer1.c ****         #endif  /* (Timer1__PWM == Timer1_PWM_MODE) */
 114:Generated_Source\PSoC4/Timer1.c **** 
 115:Generated_Source\PSoC4/Timer1.c ****         /* Set values from customizer to CTRL1 */
 116:Generated_Source\PSoC4/Timer1.c ****         Timer1_TRIG_CONTROL1_REG  = Timer1_PWM_SIGNALS_MODES;
 117:Generated_Source\PSoC4/Timer1.c ****     
 118:Generated_Source\PSoC4/Timer1.c ****         /* Set values from customizer to INTR */
 119:Generated_Source\PSoC4/Timer1.c ****         Timer1_SetInterruptMode(Timer1_PWM_INTERRUPT_MASK);
 120:Generated_Source\PSoC4/Timer1.c **** 
 121:Generated_Source\PSoC4/Timer1.c ****         /* Set values from customizer to CTRL2 */
 122:Generated_Source\PSoC4/Timer1.c ****         #if (Timer1__PWM_PR == Timer1_PWM_MODE)
 123:Generated_Source\PSoC4/Timer1.c ****             Timer1_TRIG_CONTROL2_REG =
 124:Generated_Source\PSoC4/Timer1.c ****                     (Timer1_CC_MATCH_NO_CHANGE    |
 125:Generated_Source\PSoC4/Timer1.c ****                     Timer1_OVERLOW_NO_CHANGE      |
 126:Generated_Source\PSoC4/Timer1.c ****                     Timer1_UNDERFLOW_NO_CHANGE);
 127:Generated_Source\PSoC4/Timer1.c ****         #else
 128:Generated_Source\PSoC4/Timer1.c ****             #if (Timer1__LEFT == Timer1_PWM_ALIGN)
 129:Generated_Source\PSoC4/Timer1.c ****                 Timer1_TRIG_CONTROL2_REG = Timer1_PWM_MODE_LEFT;
 130:Generated_Source\PSoC4/Timer1.c ****             #endif  /* ( Timer1_PWM_LEFT == Timer1_PWM_ALIGN) */
 131:Generated_Source\PSoC4/Timer1.c **** 
 132:Generated_Source\PSoC4/Timer1.c ****             #if (Timer1__RIGHT == Timer1_PWM_ALIGN)
 133:Generated_Source\PSoC4/Timer1.c ****                 Timer1_TRIG_CONTROL2_REG = Timer1_PWM_MODE_RIGHT;
 134:Generated_Source\PSoC4/Timer1.c ****             #endif  /* ( Timer1_PWM_RIGHT == Timer1_PWM_ALIGN) */
 135:Generated_Source\PSoC4/Timer1.c **** 
 136:Generated_Source\PSoC4/Timer1.c ****             #if (Timer1__CENTER == Timer1_PWM_ALIGN)
 137:Generated_Source\PSoC4/Timer1.c ****                 Timer1_TRIG_CONTROL2_REG = Timer1_PWM_MODE_CENTER;
 138:Generated_Source\PSoC4/Timer1.c ****             #endif  /* ( Timer1_PWM_CENTER == Timer1_PWM_ALIGN) */
 139:Generated_Source\PSoC4/Timer1.c **** 
 140:Generated_Source\PSoC4/Timer1.c ****             #if (Timer1__ASYMMETRIC == Timer1_PWM_ALIGN)
 141:Generated_Source\PSoC4/Timer1.c ****                 Timer1_TRIG_CONTROL2_REG = Timer1_PWM_MODE_ASYM;
 142:Generated_Source\PSoC4/Timer1.c ****             #endif  /* (Timer1__ASYMMETRIC == Timer1_PWM_ALIGN) */
 143:Generated_Source\PSoC4/Timer1.c ****         #endif  /* (Timer1__PWM_PR == Timer1_PWM_MODE) */
 144:Generated_Source\PSoC4/Timer1.c **** 
ARM GAS  C:\Users\mac_000\AppData\Local\Temp\ccHYHBYg.s 			page 4


 145:Generated_Source\PSoC4/Timer1.c ****         /* Set other values from customizer */
 146:Generated_Source\PSoC4/Timer1.c ****         Timer1_WritePeriod(Timer1_PWM_PERIOD_VALUE );
 147:Generated_Source\PSoC4/Timer1.c ****         Timer1_WriteCompare(Timer1_PWM_COMPARE_VALUE);
 148:Generated_Source\PSoC4/Timer1.c **** 
 149:Generated_Source\PSoC4/Timer1.c ****         #if (1u == Timer1_PWM_COMPARE_SWAP)
 150:Generated_Source\PSoC4/Timer1.c ****             Timer1_SetCompareSwap(1u);
 151:Generated_Source\PSoC4/Timer1.c ****             Timer1_WriteCompareBuf(Timer1_PWM_COMPARE_BUF_VALUE);
 152:Generated_Source\PSoC4/Timer1.c ****         #endif  /* (1u == Timer1_PWM_COMPARE_SWAP) */
 153:Generated_Source\PSoC4/Timer1.c **** 
 154:Generated_Source\PSoC4/Timer1.c ****         #if (1u == Timer1_PWM_PERIOD_SWAP)
 155:Generated_Source\PSoC4/Timer1.c ****             Timer1_SetPeriodSwap(1u);
 156:Generated_Source\PSoC4/Timer1.c ****             Timer1_WritePeriodBuf(Timer1_PWM_PERIOD_BUF_VALUE);
 157:Generated_Source\PSoC4/Timer1.c ****         #endif  /* (1u == Timer1_PWM_PERIOD_SWAP) */
 158:Generated_Source\PSoC4/Timer1.c ****     #endif  /* (Timer1__PWM_SEL == Timer1_CONFIG) */
 159:Generated_Source\PSoC4/Timer1.c ****     
 160:Generated_Source\PSoC4/Timer1.c **** }
 161:Generated_Source\PSoC4/Timer1.c **** 
 162:Generated_Source\PSoC4/Timer1.c **** 
 163:Generated_Source\PSoC4/Timer1.c **** /*******************************************************************************
 164:Generated_Source\PSoC4/Timer1.c **** * Function Name: Timer1_Enable
 165:Generated_Source\PSoC4/Timer1.c **** ********************************************************************************
 166:Generated_Source\PSoC4/Timer1.c **** *
 167:Generated_Source\PSoC4/Timer1.c **** * Summary:
 168:Generated_Source\PSoC4/Timer1.c **** *  Enables the Timer1.
 169:Generated_Source\PSoC4/Timer1.c **** *
 170:Generated_Source\PSoC4/Timer1.c **** * Parameters:
 171:Generated_Source\PSoC4/Timer1.c **** *  None
 172:Generated_Source\PSoC4/Timer1.c **** *
 173:Generated_Source\PSoC4/Timer1.c **** * Return:
 174:Generated_Source\PSoC4/Timer1.c **** *  None
 175:Generated_Source\PSoC4/Timer1.c **** *
 176:Generated_Source\PSoC4/Timer1.c **** *******************************************************************************/
 177:Generated_Source\PSoC4/Timer1.c **** void Timer1_Enable(void)
 178:Generated_Source\PSoC4/Timer1.c **** {
 179:Generated_Source\PSoC4/Timer1.c ****     uint8 enableInterrupts;
 180:Generated_Source\PSoC4/Timer1.c **** 
 181:Generated_Source\PSoC4/Timer1.c ****     enableInterrupts = CyEnterCriticalSection();
 182:Generated_Source\PSoC4/Timer1.c ****     Timer1_BLOCK_CONTROL_REG |= Timer1_MASK;
 183:Generated_Source\PSoC4/Timer1.c ****     CyExitCriticalSection(enableInterrupts);
 184:Generated_Source\PSoC4/Timer1.c **** 
 185:Generated_Source\PSoC4/Timer1.c ****     /* Start Timer or PWM if start input is absent */
 186:Generated_Source\PSoC4/Timer1.c ****     #if (Timer1__PWM_SEL == Timer1_CONFIG)
 187:Generated_Source\PSoC4/Timer1.c ****         #if (0u == Timer1_PWM_START_SIGNAL_PRESENT)
 188:Generated_Source\PSoC4/Timer1.c ****             Timer1_TriggerCommand(Timer1_MASK, Timer1_CMD_START);
 189:Generated_Source\PSoC4/Timer1.c ****         #endif /* (0u == Timer1_PWM_START_SIGNAL_PRESENT) */
 190:Generated_Source\PSoC4/Timer1.c ****     #endif /* (Timer1__PWM_SEL == Timer1_CONFIG) */
 191:Generated_Source\PSoC4/Timer1.c **** 
 192:Generated_Source\PSoC4/Timer1.c ****     #if (Timer1__TIMER == Timer1_CONFIG)
 193:Generated_Source\PSoC4/Timer1.c ****         #if (0u == Timer1_TC_START_SIGNAL_PRESENT)
 194:Generated_Source\PSoC4/Timer1.c ****             Timer1_TriggerCommand(Timer1_MASK, Timer1_CMD_START);
 195:Generated_Source\PSoC4/Timer1.c ****         #endif /* (0u == Timer1_TC_START_SIGNAL_PRESENT) */
 196:Generated_Source\PSoC4/Timer1.c ****     #endif /* (Timer1__TIMER == Timer1_CONFIG) */
 197:Generated_Source\PSoC4/Timer1.c ****     
 198:Generated_Source\PSoC4/Timer1.c ****     #if (Timer1__QUAD == Timer1_CONFIG)
 199:Generated_Source\PSoC4/Timer1.c ****         #if (0u != Timer1_QUAD_AUTO_START)
 200:Generated_Source\PSoC4/Timer1.c ****             Timer1_TriggerCommand(Timer1_MASK, Timer1_CMD_RELOAD);
 201:Generated_Source\PSoC4/Timer1.c ****         #endif /* (0u != Timer1_QUAD_AUTO_START) */
ARM GAS  C:\Users\mac_000\AppData\Local\Temp\ccHYHBYg.s 			page 5


 202:Generated_Source\PSoC4/Timer1.c ****     #endif  /* (Timer1__QUAD == Timer1_CONFIG) */
 203:Generated_Source\PSoC4/Timer1.c **** }
 204:Generated_Source\PSoC4/Timer1.c **** 
 205:Generated_Source\PSoC4/Timer1.c **** 
 206:Generated_Source\PSoC4/Timer1.c **** /*******************************************************************************
 207:Generated_Source\PSoC4/Timer1.c **** * Function Name: Timer1_Start
 208:Generated_Source\PSoC4/Timer1.c **** ********************************************************************************
 209:Generated_Source\PSoC4/Timer1.c **** *
 210:Generated_Source\PSoC4/Timer1.c **** * Summary:
 211:Generated_Source\PSoC4/Timer1.c **** *  Initializes the Timer1 with default customizer
 212:Generated_Source\PSoC4/Timer1.c **** *  values when called the first time and enables the Timer1.
 213:Generated_Source\PSoC4/Timer1.c **** *  For subsequent calls the configuration is left unchanged and the component is
 214:Generated_Source\PSoC4/Timer1.c **** *  just enabled.
 215:Generated_Source\PSoC4/Timer1.c **** *
 216:Generated_Source\PSoC4/Timer1.c **** * Parameters:
 217:Generated_Source\PSoC4/Timer1.c **** *  None
 218:Generated_Source\PSoC4/Timer1.c **** *
 219:Generated_Source\PSoC4/Timer1.c **** * Return:
 220:Generated_Source\PSoC4/Timer1.c **** *  None
 221:Generated_Source\PSoC4/Timer1.c **** *
 222:Generated_Source\PSoC4/Timer1.c **** * Global variables:
 223:Generated_Source\PSoC4/Timer1.c **** *  Timer1_initVar: global variable is used to indicate initial
 224:Generated_Source\PSoC4/Timer1.c **** *  configuration of this component.  The variable is initialized to zero and set
 225:Generated_Source\PSoC4/Timer1.c **** *  to 1 the first time Timer1_Start() is called. This allows
 226:Generated_Source\PSoC4/Timer1.c **** *  enabling/disabling a component without re-initialization in all subsequent
 227:Generated_Source\PSoC4/Timer1.c **** *  calls to the Timer1_Start() routine.
 228:Generated_Source\PSoC4/Timer1.c **** *
 229:Generated_Source\PSoC4/Timer1.c **** *******************************************************************************/
 230:Generated_Source\PSoC4/Timer1.c **** void Timer1_Start(void)
 231:Generated_Source\PSoC4/Timer1.c **** {
 232:Generated_Source\PSoC4/Timer1.c ****     if (0u == Timer1_initVar)
 233:Generated_Source\PSoC4/Timer1.c ****     {
 234:Generated_Source\PSoC4/Timer1.c ****         Timer1_Init();
 235:Generated_Source\PSoC4/Timer1.c ****         Timer1_initVar = 1u;
 236:Generated_Source\PSoC4/Timer1.c ****     }
 237:Generated_Source\PSoC4/Timer1.c **** 
 238:Generated_Source\PSoC4/Timer1.c ****     Timer1_Enable();
 239:Generated_Source\PSoC4/Timer1.c **** }
 240:Generated_Source\PSoC4/Timer1.c **** 
 241:Generated_Source\PSoC4/Timer1.c **** 
 242:Generated_Source\PSoC4/Timer1.c **** /*******************************************************************************
 243:Generated_Source\PSoC4/Timer1.c **** * Function Name: Timer1_Stop
 244:Generated_Source\PSoC4/Timer1.c **** ********************************************************************************
 245:Generated_Source\PSoC4/Timer1.c **** *
 246:Generated_Source\PSoC4/Timer1.c **** * Summary:
 247:Generated_Source\PSoC4/Timer1.c **** *  Disables the Timer1.
 248:Generated_Source\PSoC4/Timer1.c **** *
 249:Generated_Source\PSoC4/Timer1.c **** * Parameters:
 250:Generated_Source\PSoC4/Timer1.c **** *  None
 251:Generated_Source\PSoC4/Timer1.c **** *
 252:Generated_Source\PSoC4/Timer1.c **** * Return:
 253:Generated_Source\PSoC4/Timer1.c **** *  None
 254:Generated_Source\PSoC4/Timer1.c **** *
 255:Generated_Source\PSoC4/Timer1.c **** *******************************************************************************/
 256:Generated_Source\PSoC4/Timer1.c **** void Timer1_Stop(void)
 257:Generated_Source\PSoC4/Timer1.c **** {
  28              		.loc 1 257 0
ARM GAS  C:\Users\mac_000\AppData\Local\Temp\ccHYHBYg.s 			page 6


  29              		.cfi_startproc
  30              		@ args = 0, pretend = 0, frame = 0
  31              		@ frame_needed = 0, uses_anonymous_args = 0
  32 0000 10B5     		push	{r4, lr}
  33              		.cfi_def_cfa_offset 8
  34              		.cfi_offset 4, -8
  35              		.cfi_offset 14, -4
 258:Generated_Source\PSoC4/Timer1.c ****     uint8 enableInterrupts;
 259:Generated_Source\PSoC4/Timer1.c **** 
 260:Generated_Source\PSoC4/Timer1.c ****     enableInterrupts = CyEnterCriticalSection();
  36              		.loc 1 260 0
  37 0002 FFF7FEFF 		bl	CyEnterCriticalSection
  38              	.LVL0:
 261:Generated_Source\PSoC4/Timer1.c **** 
 262:Generated_Source\PSoC4/Timer1.c ****     Timer1_BLOCK_CONTROL_REG &= (uint32)~Timer1_MASK;
  39              		.loc 1 262 0
  40 0006 044A     		ldr	r2, .L2
  41 0008 1368     		ldr	r3, [r2]
  42 000a 0121     		movs	r1, #1
  43 000c 8B43     		bics	r3, r1
  44 000e 1360     		str	r3, [r2]
 263:Generated_Source\PSoC4/Timer1.c **** 
 264:Generated_Source\PSoC4/Timer1.c ****     CyExitCriticalSection(enableInterrupts);
  45              		.loc 1 264 0
  46 0010 FFF7FEFF 		bl	CyExitCriticalSection
  47              	.LVL1:
 265:Generated_Source\PSoC4/Timer1.c **** }
  48              		.loc 1 265 0
  49              		@ sp needed
  50 0014 10BD     		pop	{r4, pc}
  51              	.L3:
  52 0016 C046     		.align	2
  53              	.L2:
  54 0018 00000540 		.word	1074069504
  55              		.cfi_endproc
  56              	.LFE3:
  57              		.size	Timer1_Stop, .-Timer1_Stop
  58              		.section	.text.Timer1_SetMode,"ax",%progbits
  59              		.align	2
  60              		.global	Timer1_SetMode
  61              		.code	16
  62              		.thumb_func
  63              		.type	Timer1_SetMode, %function
  64              	Timer1_SetMode:
  65              	.LFB4:
 266:Generated_Source\PSoC4/Timer1.c **** 
 267:Generated_Source\PSoC4/Timer1.c **** 
 268:Generated_Source\PSoC4/Timer1.c **** /*******************************************************************************
 269:Generated_Source\PSoC4/Timer1.c **** * Function Name: Timer1_SetMode
 270:Generated_Source\PSoC4/Timer1.c **** ********************************************************************************
 271:Generated_Source\PSoC4/Timer1.c **** *
 272:Generated_Source\PSoC4/Timer1.c **** * Summary:
 273:Generated_Source\PSoC4/Timer1.c **** *  Sets the operation mode of the Timer1. This function is used when
 274:Generated_Source\PSoC4/Timer1.c **** *  configured as a generic Timer1 and the actual mode of operation is
 275:Generated_Source\PSoC4/Timer1.c **** *  set at runtime. The mode must be set while the component is disabled.
 276:Generated_Source\PSoC4/Timer1.c **** *
 277:Generated_Source\PSoC4/Timer1.c **** * Parameters:
ARM GAS  C:\Users\mac_000\AppData\Local\Temp\ccHYHBYg.s 			page 7


 278:Generated_Source\PSoC4/Timer1.c **** *  mode: Mode for the Timer1 to operate in
 279:Generated_Source\PSoC4/Timer1.c **** *   Values:
 280:Generated_Source\PSoC4/Timer1.c **** *   - Timer1_MODE_TIMER_COMPARE - Timer / Counter with
 281:Generated_Source\PSoC4/Timer1.c **** *                                                 compare capability
 282:Generated_Source\PSoC4/Timer1.c **** *         - Timer1_MODE_TIMER_CAPTURE - Timer / Counter with
 283:Generated_Source\PSoC4/Timer1.c **** *                                                 capture capability
 284:Generated_Source\PSoC4/Timer1.c **** *         - Timer1_MODE_QUAD - Quadrature decoder
 285:Generated_Source\PSoC4/Timer1.c **** *         - Timer1_MODE_PWM - PWM
 286:Generated_Source\PSoC4/Timer1.c **** *         - Timer1_MODE_PWM_DT - PWM with dead time
 287:Generated_Source\PSoC4/Timer1.c **** *         - Timer1_MODE_PWM_PR - PWM with pseudo random capability
 288:Generated_Source\PSoC4/Timer1.c **** *
 289:Generated_Source\PSoC4/Timer1.c **** * Return:
 290:Generated_Source\PSoC4/Timer1.c **** *  None
 291:Generated_Source\PSoC4/Timer1.c **** *
 292:Generated_Source\PSoC4/Timer1.c **** *******************************************************************************/
 293:Generated_Source\PSoC4/Timer1.c **** void Timer1_SetMode(uint32 mode)
 294:Generated_Source\PSoC4/Timer1.c **** {
  66              		.loc 1 294 0
  67              		.cfi_startproc
  68              		@ args = 0, pretend = 0, frame = 0
  69              		@ frame_needed = 0, uses_anonymous_args = 0
  70              	.LVL2:
  71 0000 10B5     		push	{r4, lr}
  72              		.cfi_def_cfa_offset 8
  73              		.cfi_offset 4, -8
  74              		.cfi_offset 14, -4
  75 0002 0400     		movs	r4, r0
 295:Generated_Source\PSoC4/Timer1.c ****     uint8 enableInterrupts;
 296:Generated_Source\PSoC4/Timer1.c **** 
 297:Generated_Source\PSoC4/Timer1.c ****     enableInterrupts = CyEnterCriticalSection();
  76              		.loc 1 297 0
  77 0004 FFF7FEFF 		bl	CyEnterCriticalSection
  78              	.LVL3:
 298:Generated_Source\PSoC4/Timer1.c **** 
 299:Generated_Source\PSoC4/Timer1.c ****     Timer1_CONTROL_REG &= (uint32)~Timer1_MODE_MASK;
  79              		.loc 1 299 0
  80 0008 054B     		ldr	r3, .L5
  81 000a 1968     		ldr	r1, [r3]
  82 000c 054A     		ldr	r2, .L5+4
  83 000e 0A40     		ands	r2, r1
  84 0010 1A60     		str	r2, [r3]
 300:Generated_Source\PSoC4/Timer1.c ****     Timer1_CONTROL_REG |= mode;
  85              		.loc 1 300 0
  86 0012 1A68     		ldr	r2, [r3]
  87 0014 1443     		orrs	r4, r2
  88              	.LVL4:
  89 0016 1C60     		str	r4, [r3]
 301:Generated_Source\PSoC4/Timer1.c **** 
 302:Generated_Source\PSoC4/Timer1.c ****     CyExitCriticalSection(enableInterrupts);
  90              		.loc 1 302 0
  91 0018 FFF7FEFF 		bl	CyExitCriticalSection
  92              	.LVL5:
 303:Generated_Source\PSoC4/Timer1.c **** }
  93              		.loc 1 303 0
  94              		@ sp needed
  95 001c 10BD     		pop	{r4, pc}
  96              	.L6:
ARM GAS  C:\Users\mac_000\AppData\Local\Temp\ccHYHBYg.s 			page 8


  97 001e C046     		.align	2
  98              	.L5:
  99 0020 00010540 		.word	1074069760
 100 0024 FFFFFFF8 		.word	-117440513
 101              		.cfi_endproc
 102              	.LFE4:
 103              		.size	Timer1_SetMode, .-Timer1_SetMode
 104              		.section	.text.Timer1_SetQDMode,"ax",%progbits
 105              		.align	2
 106              		.global	Timer1_SetQDMode
 107              		.code	16
 108              		.thumb_func
 109              		.type	Timer1_SetQDMode, %function
 110              	Timer1_SetQDMode:
 111              	.LFB5:
 304:Generated_Source\PSoC4/Timer1.c **** 
 305:Generated_Source\PSoC4/Timer1.c **** 
 306:Generated_Source\PSoC4/Timer1.c **** /*******************************************************************************
 307:Generated_Source\PSoC4/Timer1.c **** * Function Name: Timer1_SetQDMode
 308:Generated_Source\PSoC4/Timer1.c **** ********************************************************************************
 309:Generated_Source\PSoC4/Timer1.c **** *
 310:Generated_Source\PSoC4/Timer1.c **** * Summary:
 311:Generated_Source\PSoC4/Timer1.c **** *  Sets the the Quadrature Decoder to one of the 3 supported modes.
 312:Generated_Source\PSoC4/Timer1.c **** *  Its functionality is only applicable to Quadrature Decoder operation.
 313:Generated_Source\PSoC4/Timer1.c **** *
 314:Generated_Source\PSoC4/Timer1.c **** * Parameters:
 315:Generated_Source\PSoC4/Timer1.c **** *  qdMode: Quadrature Decoder mode
 316:Generated_Source\PSoC4/Timer1.c **** *   Values:
 317:Generated_Source\PSoC4/Timer1.c **** *         - Timer1_MODE_X1 - Counts on phi 1 rising
 318:Generated_Source\PSoC4/Timer1.c **** *         - Timer1_MODE_X2 - Counts on both edges of phi1 (2x faster)
 319:Generated_Source\PSoC4/Timer1.c **** *         - Timer1_MODE_X4 - Counts on both edges of phi1 and phi2
 320:Generated_Source\PSoC4/Timer1.c **** *                                        (4x faster)
 321:Generated_Source\PSoC4/Timer1.c **** *
 322:Generated_Source\PSoC4/Timer1.c **** * Return:
 323:Generated_Source\PSoC4/Timer1.c **** *  None
 324:Generated_Source\PSoC4/Timer1.c **** *
 325:Generated_Source\PSoC4/Timer1.c **** *******************************************************************************/
 326:Generated_Source\PSoC4/Timer1.c **** void Timer1_SetQDMode(uint32 qdMode)
 327:Generated_Source\PSoC4/Timer1.c **** {
 112              		.loc 1 327 0
 113              		.cfi_startproc
 114              		@ args = 0, pretend = 0, frame = 0
 115              		@ frame_needed = 0, uses_anonymous_args = 0
 116              	.LVL6:
 117 0000 10B5     		push	{r4, lr}
 118              		.cfi_def_cfa_offset 8
 119              		.cfi_offset 4, -8
 120              		.cfi_offset 14, -4
 121 0002 0400     		movs	r4, r0
 328:Generated_Source\PSoC4/Timer1.c ****     uint8 enableInterrupts;
 329:Generated_Source\PSoC4/Timer1.c **** 
 330:Generated_Source\PSoC4/Timer1.c ****     enableInterrupts = CyEnterCriticalSection();
 122              		.loc 1 330 0
 123 0004 FFF7FEFF 		bl	CyEnterCriticalSection
 124              	.LVL7:
 331:Generated_Source\PSoC4/Timer1.c **** 
 332:Generated_Source\PSoC4/Timer1.c ****     Timer1_CONTROL_REG &= (uint32)~Timer1_QUAD_MODE_MASK;
ARM GAS  C:\Users\mac_000\AppData\Local\Temp\ccHYHBYg.s 			page 9


 125              		.loc 1 332 0
 126 0008 054B     		ldr	r3, .L8
 127 000a 1968     		ldr	r1, [r3]
 128 000c 054A     		ldr	r2, .L8+4
 129 000e 0A40     		ands	r2, r1
 130 0010 1A60     		str	r2, [r3]
 333:Generated_Source\PSoC4/Timer1.c ****     Timer1_CONTROL_REG |= qdMode;
 131              		.loc 1 333 0
 132 0012 1A68     		ldr	r2, [r3]
 133 0014 1443     		orrs	r4, r2
 134              	.LVL8:
 135 0016 1C60     		str	r4, [r3]
 334:Generated_Source\PSoC4/Timer1.c **** 
 335:Generated_Source\PSoC4/Timer1.c ****     CyExitCriticalSection(enableInterrupts);
 136              		.loc 1 335 0
 137 0018 FFF7FEFF 		bl	CyExitCriticalSection
 138              	.LVL9:
 336:Generated_Source\PSoC4/Timer1.c **** }
 139              		.loc 1 336 0
 140              		@ sp needed
 141 001c 10BD     		pop	{r4, pc}
 142              	.L9:
 143 001e C046     		.align	2
 144              	.L8:
 145 0020 00010540 		.word	1074069760
 146 0024 FFFF8FFF 		.word	-7340033
 147              		.cfi_endproc
 148              	.LFE5:
 149              		.size	Timer1_SetQDMode, .-Timer1_SetQDMode
 150              		.section	.text.Timer1_SetPrescaler,"ax",%progbits
 151              		.align	2
 152              		.global	Timer1_SetPrescaler
 153              		.code	16
 154              		.thumb_func
 155              		.type	Timer1_SetPrescaler, %function
 156              	Timer1_SetPrescaler:
 157              	.LFB6:
 337:Generated_Source\PSoC4/Timer1.c **** 
 338:Generated_Source\PSoC4/Timer1.c **** 
 339:Generated_Source\PSoC4/Timer1.c **** /*******************************************************************************
 340:Generated_Source\PSoC4/Timer1.c **** * Function Name: Timer1_SetPrescaler
 341:Generated_Source\PSoC4/Timer1.c **** ********************************************************************************
 342:Generated_Source\PSoC4/Timer1.c **** *
 343:Generated_Source\PSoC4/Timer1.c **** * Summary:
 344:Generated_Source\PSoC4/Timer1.c **** *  Sets the prescaler value that is applied to the clock input.  Not applicable
 345:Generated_Source\PSoC4/Timer1.c **** *  to a PWM with the dead time mode or Quadrature Decoder mode.
 346:Generated_Source\PSoC4/Timer1.c **** *
 347:Generated_Source\PSoC4/Timer1.c **** * Parameters:
 348:Generated_Source\PSoC4/Timer1.c **** *  prescaler: Prescaler divider value
 349:Generated_Source\PSoC4/Timer1.c **** *   Values:
 350:Generated_Source\PSoC4/Timer1.c **** *         - Timer1_PRESCALE_DIVBY1    - Divide by 1 (no prescaling)
 351:Generated_Source\PSoC4/Timer1.c **** *         - Timer1_PRESCALE_DIVBY2    - Divide by 2
 352:Generated_Source\PSoC4/Timer1.c **** *         - Timer1_PRESCALE_DIVBY4    - Divide by 4
 353:Generated_Source\PSoC4/Timer1.c **** *         - Timer1_PRESCALE_DIVBY8    - Divide by 8
 354:Generated_Source\PSoC4/Timer1.c **** *         - Timer1_PRESCALE_DIVBY16   - Divide by 16
 355:Generated_Source\PSoC4/Timer1.c **** *         - Timer1_PRESCALE_DIVBY32   - Divide by 32
 356:Generated_Source\PSoC4/Timer1.c **** *         - Timer1_PRESCALE_DIVBY64   - Divide by 64
ARM GAS  C:\Users\mac_000\AppData\Local\Temp\ccHYHBYg.s 			page 10


 357:Generated_Source\PSoC4/Timer1.c **** *         - Timer1_PRESCALE_DIVBY128  - Divide by 128
 358:Generated_Source\PSoC4/Timer1.c **** *
 359:Generated_Source\PSoC4/Timer1.c **** * Return:
 360:Generated_Source\PSoC4/Timer1.c **** *  None
 361:Generated_Source\PSoC4/Timer1.c **** *
 362:Generated_Source\PSoC4/Timer1.c **** *******************************************************************************/
 363:Generated_Source\PSoC4/Timer1.c **** void Timer1_SetPrescaler(uint32 prescaler)
 364:Generated_Source\PSoC4/Timer1.c **** {
 158              		.loc 1 364 0
 159              		.cfi_startproc
 160              		@ args = 0, pretend = 0, frame = 0
 161              		@ frame_needed = 0, uses_anonymous_args = 0
 162              	.LVL10:
 163 0000 10B5     		push	{r4, lr}
 164              		.cfi_def_cfa_offset 8
 165              		.cfi_offset 4, -8
 166              		.cfi_offset 14, -4
 167 0002 0400     		movs	r4, r0
 365:Generated_Source\PSoC4/Timer1.c ****     uint8 enableInterrupts;
 366:Generated_Source\PSoC4/Timer1.c **** 
 367:Generated_Source\PSoC4/Timer1.c ****     enableInterrupts = CyEnterCriticalSection();
 168              		.loc 1 367 0
 169 0004 FFF7FEFF 		bl	CyEnterCriticalSection
 170              	.LVL11:
 368:Generated_Source\PSoC4/Timer1.c **** 
 369:Generated_Source\PSoC4/Timer1.c ****     Timer1_CONTROL_REG &= (uint32)~Timer1_PRESCALER_MASK;
 171              		.loc 1 369 0
 172 0008 054B     		ldr	r3, .L11
 173 000a 1968     		ldr	r1, [r3]
 174 000c 054A     		ldr	r2, .L11+4
 175 000e 0A40     		ands	r2, r1
 176 0010 1A60     		str	r2, [r3]
 370:Generated_Source\PSoC4/Timer1.c ****     Timer1_CONTROL_REG |= prescaler;
 177              		.loc 1 370 0
 178 0012 1A68     		ldr	r2, [r3]
 179 0014 1443     		orrs	r4, r2
 180              	.LVL12:
 181 0016 1C60     		str	r4, [r3]
 371:Generated_Source\PSoC4/Timer1.c **** 
 372:Generated_Source\PSoC4/Timer1.c ****     CyExitCriticalSection(enableInterrupts);
 182              		.loc 1 372 0
 183 0018 FFF7FEFF 		bl	CyExitCriticalSection
 184              	.LVL13:
 373:Generated_Source\PSoC4/Timer1.c **** }
 185              		.loc 1 373 0
 186              		@ sp needed
 187 001c 10BD     		pop	{r4, pc}
 188              	.L12:
 189 001e C046     		.align	2
 190              	.L11:
 191 0020 00010540 		.word	1074069760
 192 0024 FF00FFFF 		.word	-65281
 193              		.cfi_endproc
 194              	.LFE6:
 195              		.size	Timer1_SetPrescaler, .-Timer1_SetPrescaler
 196              		.section	.text.Timer1_SetOneShot,"ax",%progbits
 197              		.align	2
ARM GAS  C:\Users\mac_000\AppData\Local\Temp\ccHYHBYg.s 			page 11


 198              		.global	Timer1_SetOneShot
 199              		.code	16
 200              		.thumb_func
 201              		.type	Timer1_SetOneShot, %function
 202              	Timer1_SetOneShot:
 203              	.LFB7:
 374:Generated_Source\PSoC4/Timer1.c **** 
 375:Generated_Source\PSoC4/Timer1.c **** 
 376:Generated_Source\PSoC4/Timer1.c **** /*******************************************************************************
 377:Generated_Source\PSoC4/Timer1.c **** * Function Name: Timer1_SetOneShot
 378:Generated_Source\PSoC4/Timer1.c **** ********************************************************************************
 379:Generated_Source\PSoC4/Timer1.c **** *
 380:Generated_Source\PSoC4/Timer1.c **** * Summary:
 381:Generated_Source\PSoC4/Timer1.c **** *  Writes the register that controls whether the Timer1 runs
 382:Generated_Source\PSoC4/Timer1.c **** *  continuously or stops when terminal count is reached.  By default the
 383:Generated_Source\PSoC4/Timer1.c **** *  Timer1 operates in the continuous mode.
 384:Generated_Source\PSoC4/Timer1.c **** *
 385:Generated_Source\PSoC4/Timer1.c **** * Parameters:
 386:Generated_Source\PSoC4/Timer1.c **** *  oneShotEnable
 387:Generated_Source\PSoC4/Timer1.c **** *   Values:
 388:Generated_Source\PSoC4/Timer1.c **** *     - 0 - Continuous
 389:Generated_Source\PSoC4/Timer1.c **** *     - 1 - Enable One Shot
 390:Generated_Source\PSoC4/Timer1.c **** *
 391:Generated_Source\PSoC4/Timer1.c **** * Return:
 392:Generated_Source\PSoC4/Timer1.c **** *  None
 393:Generated_Source\PSoC4/Timer1.c **** *
 394:Generated_Source\PSoC4/Timer1.c **** *******************************************************************************/
 395:Generated_Source\PSoC4/Timer1.c **** void Timer1_SetOneShot(uint32 oneShotEnable)
 396:Generated_Source\PSoC4/Timer1.c **** {
 204              		.loc 1 396 0
 205              		.cfi_startproc
 206              		@ args = 0, pretend = 0, frame = 0
 207              		@ frame_needed = 0, uses_anonymous_args = 0
 208              	.LVL14:
 209 0000 70B5     		push	{r4, r5, r6, lr}
 210              		.cfi_def_cfa_offset 16
 211              		.cfi_offset 4, -16
 212              		.cfi_offset 5, -12
 213              		.cfi_offset 6, -8
 214              		.cfi_offset 14, -4
 215 0002 0400     		movs	r4, r0
 397:Generated_Source\PSoC4/Timer1.c ****     uint8 enableInterrupts;
 398:Generated_Source\PSoC4/Timer1.c **** 
 399:Generated_Source\PSoC4/Timer1.c ****     enableInterrupts = CyEnterCriticalSection();
 216              		.loc 1 399 0
 217 0004 FFF7FEFF 		bl	CyEnterCriticalSection
 218              	.LVL15:
 400:Generated_Source\PSoC4/Timer1.c **** 
 401:Generated_Source\PSoC4/Timer1.c ****     Timer1_CONTROL_REG &= (uint32)~Timer1_ONESHOT_MASK;
 219              		.loc 1 401 0
 220 0008 0749     		ldr	r1, .L14
 221 000a 0A68     		ldr	r2, [r1]
 222 000c 074B     		ldr	r3, .L14+4
 223 000e 1340     		ands	r3, r2
 224 0010 0B60     		str	r3, [r1]
 402:Generated_Source\PSoC4/Timer1.c ****     Timer1_CONTROL_REG |= ((uint32)((oneShotEnable & Timer1_1BIT_MASK) <<
 225              		.loc 1 402 0
ARM GAS  C:\Users\mac_000\AppData\Local\Temp\ccHYHBYg.s 			page 12


 226 0012 0D68     		ldr	r5, [r1]
 227 0014 A304     		lsls	r3, r4, #18
 228 0016 8022     		movs	r2, #128
 229 0018 D202     		lsls	r2, r2, #11
 230 001a 1340     		ands	r3, r2
 231 001c 2B43     		orrs	r3, r5
 232 001e 0B60     		str	r3, [r1]
 403:Generated_Source\PSoC4/Timer1.c ****                                                                Timer1_ONESHOT_SHIFT));
 404:Generated_Source\PSoC4/Timer1.c **** 
 405:Generated_Source\PSoC4/Timer1.c ****     CyExitCriticalSection(enableInterrupts);
 233              		.loc 1 405 0
 234 0020 FFF7FEFF 		bl	CyExitCriticalSection
 235              	.LVL16:
 406:Generated_Source\PSoC4/Timer1.c **** }
 236              		.loc 1 406 0
 237              		@ sp needed
 238              	.LVL17:
 239 0024 70BD     		pop	{r4, r5, r6, pc}
 240              	.L15:
 241 0026 C046     		.align	2
 242              	.L14:
 243 0028 00010540 		.word	1074069760
 244 002c FFFFFBFF 		.word	-262145
 245              		.cfi_endproc
 246              	.LFE7:
 247              		.size	Timer1_SetOneShot, .-Timer1_SetOneShot
 248              		.section	.text.Timer1_SetPWMMode,"ax",%progbits
 249              		.align	2
 250              		.global	Timer1_SetPWMMode
 251              		.code	16
 252              		.thumb_func
 253              		.type	Timer1_SetPWMMode, %function
 254              	Timer1_SetPWMMode:
 255              	.LFB8:
 407:Generated_Source\PSoC4/Timer1.c **** 
 408:Generated_Source\PSoC4/Timer1.c **** 
 409:Generated_Source\PSoC4/Timer1.c **** /*******************************************************************************
 410:Generated_Source\PSoC4/Timer1.c **** * Function Name: Timer1_SetPWMMode
 411:Generated_Source\PSoC4/Timer1.c **** ********************************************************************************
 412:Generated_Source\PSoC4/Timer1.c **** *
 413:Generated_Source\PSoC4/Timer1.c **** * Summary:
 414:Generated_Source\PSoC4/Timer1.c **** *  Writes the control register that determines what mode of operation the PWM
 415:Generated_Source\PSoC4/Timer1.c **** *  output lines are driven in.  There is a setting for what to do on a
 416:Generated_Source\PSoC4/Timer1.c **** *  comparison match (CC_MATCH), on an overflow (OVERFLOW) and on an underflow
 417:Generated_Source\PSoC4/Timer1.c **** *  (UNDERFLOW).  The value for each of the three must be ORed together to form
 418:Generated_Source\PSoC4/Timer1.c **** *  the mode.
 419:Generated_Source\PSoC4/Timer1.c **** *
 420:Generated_Source\PSoC4/Timer1.c **** * Parameters:
 421:Generated_Source\PSoC4/Timer1.c **** *  modeMask: A combination of three mode settings.  Mask must include a value
 422:Generated_Source\PSoC4/Timer1.c **** *  for each of the three or use one of the preconfigured PWM settings.
 423:Generated_Source\PSoC4/Timer1.c **** *   Values:
 424:Generated_Source\PSoC4/Timer1.c **** *     - CC_MATCH_SET        - Set on comparison match
 425:Generated_Source\PSoC4/Timer1.c **** *     - CC_MATCH_CLEAR      - Clear on comparison match
 426:Generated_Source\PSoC4/Timer1.c **** *     - CC_MATCH_INVERT     - Invert on comparison match
 427:Generated_Source\PSoC4/Timer1.c **** *     - CC_MATCH_NO_CHANGE  - No change on comparison match
 428:Generated_Source\PSoC4/Timer1.c **** *     - OVERLOW_SET         - Set on overflow
 429:Generated_Source\PSoC4/Timer1.c **** *     - OVERLOW_CLEAR       - Clear on  overflow
ARM GAS  C:\Users\mac_000\AppData\Local\Temp\ccHYHBYg.s 			page 13


 430:Generated_Source\PSoC4/Timer1.c **** *     - OVERLOW_INVERT      - Invert on overflow
 431:Generated_Source\PSoC4/Timer1.c **** *     - OVERLOW_NO_CHANGE   - No change on overflow
 432:Generated_Source\PSoC4/Timer1.c **** *     - UNDERFLOW_SET       - Set on underflow
 433:Generated_Source\PSoC4/Timer1.c **** *     - UNDERFLOW_CLEAR     - Clear on underflow
 434:Generated_Source\PSoC4/Timer1.c **** *     - UNDERFLOW_INVERT    - Invert on underflow
 435:Generated_Source\PSoC4/Timer1.c **** *     - UNDERFLOW_NO_CHANGE - No change on underflow
 436:Generated_Source\PSoC4/Timer1.c **** *     - PWM_MODE_LEFT       - Setting for left aligned PWM.  Should be combined
 437:Generated_Source\PSoC4/Timer1.c **** *                             with up counting mode
 438:Generated_Source\PSoC4/Timer1.c **** *     - PWM_MODE_RIGHT      - Setting for right aligned PWM.  Should be combined
 439:Generated_Source\PSoC4/Timer1.c **** *                             with down counting mode
 440:Generated_Source\PSoC4/Timer1.c **** *     - PWM_MODE_CENTER     - Setting for center aligned PWM.  Should be
 441:Generated_Source\PSoC4/Timer1.c **** *                             combined with up/down 0 mode
 442:Generated_Source\PSoC4/Timer1.c **** *     - PWM_MODE_ASYM       - Setting for asymmetric PWM.  Should be combined
 443:Generated_Source\PSoC4/Timer1.c **** *                             with up/down 1 mode
 444:Generated_Source\PSoC4/Timer1.c **** *
 445:Generated_Source\PSoC4/Timer1.c **** * Return:
 446:Generated_Source\PSoC4/Timer1.c **** *  None
 447:Generated_Source\PSoC4/Timer1.c **** *
 448:Generated_Source\PSoC4/Timer1.c **** *******************************************************************************/
 449:Generated_Source\PSoC4/Timer1.c **** void Timer1_SetPWMMode(uint32 modeMask)
 450:Generated_Source\PSoC4/Timer1.c **** {
 256              		.loc 1 450 0
 257              		.cfi_startproc
 258              		@ args = 0, pretend = 0, frame = 0
 259              		@ frame_needed = 0, uses_anonymous_args = 0
 260              		@ link register save eliminated.
 261              	.LVL18:
 451:Generated_Source\PSoC4/Timer1.c ****     Timer1_TRIG_CONTROL2_REG = (modeMask & Timer1_6BIT_MASK);
 262              		.loc 1 451 0
 263 0000 3F23     		movs	r3, #63
 264 0002 1840     		ands	r0, r3
 265              	.LVL19:
 266 0004 014B     		ldr	r3, .L17
 267 0006 1860     		str	r0, [r3]
 452:Generated_Source\PSoC4/Timer1.c **** }
 268              		.loc 1 452 0
 269              		@ sp needed
 270 0008 7047     		bx	lr
 271              	.L18:
 272 000a C046     		.align	2
 273              	.L17:
 274 000c 28010540 		.word	1074069800
 275              		.cfi_endproc
 276              	.LFE8:
 277              		.size	Timer1_SetPWMMode, .-Timer1_SetPWMMode
 278              		.section	.text.Timer1_SetPWMSyncKill,"ax",%progbits
 279              		.align	2
 280              		.global	Timer1_SetPWMSyncKill
 281              		.code	16
 282              		.thumb_func
 283              		.type	Timer1_SetPWMSyncKill, %function
 284              	Timer1_SetPWMSyncKill:
 285              	.LFB9:
 453:Generated_Source\PSoC4/Timer1.c **** 
 454:Generated_Source\PSoC4/Timer1.c **** 
 455:Generated_Source\PSoC4/Timer1.c **** 
 456:Generated_Source\PSoC4/Timer1.c **** /*******************************************************************************
ARM GAS  C:\Users\mac_000\AppData\Local\Temp\ccHYHBYg.s 			page 14


 457:Generated_Source\PSoC4/Timer1.c **** * Function Name: Timer1_SetPWMSyncKill
 458:Generated_Source\PSoC4/Timer1.c **** ********************************************************************************
 459:Generated_Source\PSoC4/Timer1.c **** *
 460:Generated_Source\PSoC4/Timer1.c **** * Summary:
 461:Generated_Source\PSoC4/Timer1.c **** *  Writes the register that controls whether the PWM kill signal (stop input)
 462:Generated_Source\PSoC4/Timer1.c **** *  causes asynchronous or synchronous kill operation.  By default the kill
 463:Generated_Source\PSoC4/Timer1.c **** *  operation is asynchronous.  This functionality is only applicable to the PWM
 464:Generated_Source\PSoC4/Timer1.c **** *  and PWM with dead time modes.
 465:Generated_Source\PSoC4/Timer1.c **** *
 466:Generated_Source\PSoC4/Timer1.c **** *  For Synchronous mode the kill signal disables both the line and line_n
 467:Generated_Source\PSoC4/Timer1.c **** *  signals until the next terminal count.
 468:Generated_Source\PSoC4/Timer1.c **** *
 469:Generated_Source\PSoC4/Timer1.c **** *  For Asynchronous mode the kill signal disables both the line and line_n
 470:Generated_Source\PSoC4/Timer1.c **** *  signals when the kill signal is present.  This mode should only be used
 471:Generated_Source\PSoC4/Timer1.c **** *  when the kill signal (stop input) is configured in the pass through mode
 472:Generated_Source\PSoC4/Timer1.c **** *  (Level sensitive signal).
 473:Generated_Source\PSoC4/Timer1.c **** 
 474:Generated_Source\PSoC4/Timer1.c **** *
 475:Generated_Source\PSoC4/Timer1.c **** * Parameters:
 476:Generated_Source\PSoC4/Timer1.c **** *  syncKillEnable
 477:Generated_Source\PSoC4/Timer1.c **** *   Values:
 478:Generated_Source\PSoC4/Timer1.c **** *     - 0 - Asynchronous
 479:Generated_Source\PSoC4/Timer1.c **** *     - 1 - Synchronous
 480:Generated_Source\PSoC4/Timer1.c **** *
 481:Generated_Source\PSoC4/Timer1.c **** * Return:
 482:Generated_Source\PSoC4/Timer1.c **** *  None
 483:Generated_Source\PSoC4/Timer1.c **** *
 484:Generated_Source\PSoC4/Timer1.c **** *******************************************************************************/
 485:Generated_Source\PSoC4/Timer1.c **** void Timer1_SetPWMSyncKill(uint32 syncKillEnable)
 486:Generated_Source\PSoC4/Timer1.c **** {
 286              		.loc 1 486 0
 287              		.cfi_startproc
 288              		@ args = 0, pretend = 0, frame = 0
 289              		@ frame_needed = 0, uses_anonymous_args = 0
 290              	.LVL20:
 291 0000 70B5     		push	{r4, r5, r6, lr}
 292              		.cfi_def_cfa_offset 16
 293              		.cfi_offset 4, -16
 294              		.cfi_offset 5, -12
 295              		.cfi_offset 6, -8
 296              		.cfi_offset 14, -4
 297 0002 0400     		movs	r4, r0
 487:Generated_Source\PSoC4/Timer1.c ****     uint8 enableInterrupts;
 488:Generated_Source\PSoC4/Timer1.c **** 
 489:Generated_Source\PSoC4/Timer1.c ****     enableInterrupts = CyEnterCriticalSection();
 298              		.loc 1 489 0
 299 0004 FFF7FEFF 		bl	CyEnterCriticalSection
 300              	.LVL21:
 490:Generated_Source\PSoC4/Timer1.c **** 
 491:Generated_Source\PSoC4/Timer1.c ****     Timer1_CONTROL_REG &= (uint32)~Timer1_PWM_SYNC_KILL_MASK;
 301              		.loc 1 491 0
 302 0008 064A     		ldr	r2, .L20
 303 000a 1368     		ldr	r3, [r2]
 304 000c 0421     		movs	r1, #4
 305 000e 8B43     		bics	r3, r1
 306 0010 1360     		str	r3, [r2]
 492:Generated_Source\PSoC4/Timer1.c ****     Timer1_CONTROL_REG |= ((uint32)((syncKillEnable & Timer1_1BIT_MASK)  <<
ARM GAS  C:\Users\mac_000\AppData\Local\Temp\ccHYHBYg.s 			page 15


 307              		.loc 1 492 0
 308 0012 1568     		ldr	r5, [r2]
 309 0014 A300     		lsls	r3, r4, #2
 310 0016 1940     		ands	r1, r3
 311 0018 0C00     		movs	r4, r1
 312              	.LVL22:
 313 001a 2C43     		orrs	r4, r5
 314 001c 1460     		str	r4, [r2]
 493:Generated_Source\PSoC4/Timer1.c ****                                                Timer1_PWM_SYNC_KILL_SHIFT));
 494:Generated_Source\PSoC4/Timer1.c **** 
 495:Generated_Source\PSoC4/Timer1.c ****     CyExitCriticalSection(enableInterrupts);
 315              		.loc 1 495 0
 316 001e FFF7FEFF 		bl	CyExitCriticalSection
 317              	.LVL23:
 496:Generated_Source\PSoC4/Timer1.c **** }
 318              		.loc 1 496 0
 319              		@ sp needed
 320 0022 70BD     		pop	{r4, r5, r6, pc}
 321              	.L21:
 322              		.align	2
 323              	.L20:
 324 0024 00010540 		.word	1074069760
 325              		.cfi_endproc
 326              	.LFE9:
 327              		.size	Timer1_SetPWMSyncKill, .-Timer1_SetPWMSyncKill
 328              		.section	.text.Timer1_SetPWMStopOnKill,"ax",%progbits
 329              		.align	2
 330              		.global	Timer1_SetPWMStopOnKill
 331              		.code	16
 332              		.thumb_func
 333              		.type	Timer1_SetPWMStopOnKill, %function
 334              	Timer1_SetPWMStopOnKill:
 335              	.LFB10:
 497:Generated_Source\PSoC4/Timer1.c **** 
 498:Generated_Source\PSoC4/Timer1.c **** 
 499:Generated_Source\PSoC4/Timer1.c **** /*******************************************************************************
 500:Generated_Source\PSoC4/Timer1.c **** * Function Name: Timer1_SetPWMStopOnKill
 501:Generated_Source\PSoC4/Timer1.c **** ********************************************************************************
 502:Generated_Source\PSoC4/Timer1.c **** *
 503:Generated_Source\PSoC4/Timer1.c **** * Summary:
 504:Generated_Source\PSoC4/Timer1.c **** *  Writes the register that controls whether the PWM kill signal (stop input)
 505:Generated_Source\PSoC4/Timer1.c **** *  causes the PWM counter to stop.  By default the kill operation does not stop
 506:Generated_Source\PSoC4/Timer1.c **** *  the counter.  This functionality is only applicable to the three PWM modes.
 507:Generated_Source\PSoC4/Timer1.c **** *
 508:Generated_Source\PSoC4/Timer1.c **** *
 509:Generated_Source\PSoC4/Timer1.c **** * Parameters:
 510:Generated_Source\PSoC4/Timer1.c **** *  stopOnKillEnable
 511:Generated_Source\PSoC4/Timer1.c **** *   Values:
 512:Generated_Source\PSoC4/Timer1.c **** *     - 0 - Don't stop
 513:Generated_Source\PSoC4/Timer1.c **** *     - 1 - Stop
 514:Generated_Source\PSoC4/Timer1.c **** *
 515:Generated_Source\PSoC4/Timer1.c **** * Return:
 516:Generated_Source\PSoC4/Timer1.c **** *  None
 517:Generated_Source\PSoC4/Timer1.c **** *
 518:Generated_Source\PSoC4/Timer1.c **** *******************************************************************************/
 519:Generated_Source\PSoC4/Timer1.c **** void Timer1_SetPWMStopOnKill(uint32 stopOnKillEnable)
 520:Generated_Source\PSoC4/Timer1.c **** {
ARM GAS  C:\Users\mac_000\AppData\Local\Temp\ccHYHBYg.s 			page 16


 336              		.loc 1 520 0
 337              		.cfi_startproc
 338              		@ args = 0, pretend = 0, frame = 0
 339              		@ frame_needed = 0, uses_anonymous_args = 0
 340              	.LVL24:
 341 0000 70B5     		push	{r4, r5, r6, lr}
 342              		.cfi_def_cfa_offset 16
 343              		.cfi_offset 4, -16
 344              		.cfi_offset 5, -12
 345              		.cfi_offset 6, -8
 346              		.cfi_offset 14, -4
 347 0002 0400     		movs	r4, r0
 521:Generated_Source\PSoC4/Timer1.c ****     uint8 enableInterrupts;
 522:Generated_Source\PSoC4/Timer1.c **** 
 523:Generated_Source\PSoC4/Timer1.c ****     enableInterrupts = CyEnterCriticalSection();
 348              		.loc 1 523 0
 349 0004 FFF7FEFF 		bl	CyEnterCriticalSection
 350              	.LVL25:
 524:Generated_Source\PSoC4/Timer1.c **** 
 525:Generated_Source\PSoC4/Timer1.c ****     Timer1_CONTROL_REG &= (uint32)~Timer1_PWM_STOP_KILL_MASK;
 351              		.loc 1 525 0
 352 0008 064A     		ldr	r2, .L23
 353 000a 1368     		ldr	r3, [r2]
 354 000c 0821     		movs	r1, #8
 355 000e 8B43     		bics	r3, r1
 356 0010 1360     		str	r3, [r2]
 526:Generated_Source\PSoC4/Timer1.c ****     Timer1_CONTROL_REG |= ((uint32)((stopOnKillEnable & Timer1_1BIT_MASK)  <<
 357              		.loc 1 526 0
 358 0012 1568     		ldr	r5, [r2]
 359 0014 E300     		lsls	r3, r4, #3
 360 0016 1940     		ands	r1, r3
 361 0018 0C00     		movs	r4, r1
 362              	.LVL26:
 363 001a 2C43     		orrs	r4, r5
 364 001c 1460     		str	r4, [r2]
 527:Generated_Source\PSoC4/Timer1.c ****                                                          Timer1_PWM_STOP_KILL_SHIFT));
 528:Generated_Source\PSoC4/Timer1.c **** 
 529:Generated_Source\PSoC4/Timer1.c ****     CyExitCriticalSection(enableInterrupts);
 365              		.loc 1 529 0
 366 001e FFF7FEFF 		bl	CyExitCriticalSection
 367              	.LVL27:
 530:Generated_Source\PSoC4/Timer1.c **** }
 368              		.loc 1 530 0
 369              		@ sp needed
 370 0022 70BD     		pop	{r4, r5, r6, pc}
 371              	.L24:
 372              		.align	2
 373              	.L23:
 374 0024 00010540 		.word	1074069760
 375              		.cfi_endproc
 376              	.LFE10:
 377              		.size	Timer1_SetPWMStopOnKill, .-Timer1_SetPWMStopOnKill
 378              		.section	.text.Timer1_SetPWMDeadTime,"ax",%progbits
 379              		.align	2
 380              		.global	Timer1_SetPWMDeadTime
 381              		.code	16
 382              		.thumb_func
ARM GAS  C:\Users\mac_000\AppData\Local\Temp\ccHYHBYg.s 			page 17


 383              		.type	Timer1_SetPWMDeadTime, %function
 384              	Timer1_SetPWMDeadTime:
 385              	.LFB11:
 531:Generated_Source\PSoC4/Timer1.c **** 
 532:Generated_Source\PSoC4/Timer1.c **** 
 533:Generated_Source\PSoC4/Timer1.c **** /*******************************************************************************
 534:Generated_Source\PSoC4/Timer1.c **** * Function Name: Timer1_SetPWMDeadTime
 535:Generated_Source\PSoC4/Timer1.c **** ********************************************************************************
 536:Generated_Source\PSoC4/Timer1.c **** *
 537:Generated_Source\PSoC4/Timer1.c **** * Summary:
 538:Generated_Source\PSoC4/Timer1.c **** *  Writes the dead time control value.  This value delays the rising edge of
 539:Generated_Source\PSoC4/Timer1.c **** *  both the line and line_n signals the designated number of cycles resulting
 540:Generated_Source\PSoC4/Timer1.c **** *  in both signals being inactive for that many cycles.  This functionality is
 541:Generated_Source\PSoC4/Timer1.c **** *  only applicable to the PWM in the dead time mode.
 542:Generated_Source\PSoC4/Timer1.c **** 
 543:Generated_Source\PSoC4/Timer1.c **** *
 544:Generated_Source\PSoC4/Timer1.c **** * Parameters:
 545:Generated_Source\PSoC4/Timer1.c **** *  Dead time to insert
 546:Generated_Source\PSoC4/Timer1.c **** *   Values: 0 to 255
 547:Generated_Source\PSoC4/Timer1.c **** *
 548:Generated_Source\PSoC4/Timer1.c **** * Return:
 549:Generated_Source\PSoC4/Timer1.c **** *  None
 550:Generated_Source\PSoC4/Timer1.c **** *
 551:Generated_Source\PSoC4/Timer1.c **** *******************************************************************************/
 552:Generated_Source\PSoC4/Timer1.c **** void Timer1_SetPWMDeadTime(uint32 deadTime)
 553:Generated_Source\PSoC4/Timer1.c **** {
 386              		.loc 1 553 0
 387              		.cfi_startproc
 388              		@ args = 0, pretend = 0, frame = 0
 389              		@ frame_needed = 0, uses_anonymous_args = 0
 390              	.LVL28:
 391 0000 10B5     		push	{r4, lr}
 392              		.cfi_def_cfa_offset 8
 393              		.cfi_offset 4, -8
 394              		.cfi_offset 14, -4
 395 0002 0400     		movs	r4, r0
 554:Generated_Source\PSoC4/Timer1.c ****     uint8 enableInterrupts;
 555:Generated_Source\PSoC4/Timer1.c **** 
 556:Generated_Source\PSoC4/Timer1.c ****     enableInterrupts = CyEnterCriticalSection();
 396              		.loc 1 556 0
 397 0004 FFF7FEFF 		bl	CyEnterCriticalSection
 398              	.LVL29:
 557:Generated_Source\PSoC4/Timer1.c **** 
 558:Generated_Source\PSoC4/Timer1.c ****     Timer1_CONTROL_REG &= (uint32)~Timer1_PRESCALER_MASK;
 399              		.loc 1 558 0
 400 0008 064B     		ldr	r3, .L26
 401 000a 1968     		ldr	r1, [r3]
 402 000c 064A     		ldr	r2, .L26+4
 403 000e 0A40     		ands	r2, r1
 404 0010 1A60     		str	r2, [r3]
 559:Generated_Source\PSoC4/Timer1.c ****     Timer1_CONTROL_REG |= ((uint32)((deadTime & Timer1_8BIT_MASK) <<
 405              		.loc 1 559 0
 406 0012 1A68     		ldr	r2, [r3]
 407 0014 2406     		lsls	r4, r4, #24
 408              	.LVL30:
 409 0016 240C     		lsrs	r4, r4, #16
 410 0018 1443     		orrs	r4, r2
ARM GAS  C:\Users\mac_000\AppData\Local\Temp\ccHYHBYg.s 			page 18


 411 001a 1C60     		str	r4, [r3]
 560:Generated_Source\PSoC4/Timer1.c ****                                                           Timer1_PRESCALER_SHIFT));
 561:Generated_Source\PSoC4/Timer1.c **** 
 562:Generated_Source\PSoC4/Timer1.c ****     CyExitCriticalSection(enableInterrupts);
 412              		.loc 1 562 0
 413 001c FFF7FEFF 		bl	CyExitCriticalSection
 414              	.LVL31:
 563:Generated_Source\PSoC4/Timer1.c **** }
 415              		.loc 1 563 0
 416              		@ sp needed
 417 0020 10BD     		pop	{r4, pc}
 418              	.L27:
 419 0022 C046     		.align	2
 420              	.L26:
 421 0024 00010540 		.word	1074069760
 422 0028 FF00FFFF 		.word	-65281
 423              		.cfi_endproc
 424              	.LFE11:
 425              		.size	Timer1_SetPWMDeadTime, .-Timer1_SetPWMDeadTime
 426              		.section	.text.Timer1_SetPWMInvert,"ax",%progbits
 427              		.align	2
 428              		.global	Timer1_SetPWMInvert
 429              		.code	16
 430              		.thumb_func
 431              		.type	Timer1_SetPWMInvert, %function
 432              	Timer1_SetPWMInvert:
 433              	.LFB12:
 564:Generated_Source\PSoC4/Timer1.c **** 
 565:Generated_Source\PSoC4/Timer1.c **** 
 566:Generated_Source\PSoC4/Timer1.c **** /*******************************************************************************
 567:Generated_Source\PSoC4/Timer1.c **** * Function Name: Timer1_SetPWMInvert
 568:Generated_Source\PSoC4/Timer1.c **** ********************************************************************************
 569:Generated_Source\PSoC4/Timer1.c **** *
 570:Generated_Source\PSoC4/Timer1.c **** * Summary:
 571:Generated_Source\PSoC4/Timer1.c **** *  Writes the bits that control whether the line and line_n outputs are
 572:Generated_Source\PSoC4/Timer1.c **** *  inverted from their normal output values.  This functionality is only
 573:Generated_Source\PSoC4/Timer1.c **** *  applicable to the three PWM modes.
 574:Generated_Source\PSoC4/Timer1.c **** *
 575:Generated_Source\PSoC4/Timer1.c **** * Parameters:
 576:Generated_Source\PSoC4/Timer1.c **** *  mask: Mask of outputs to invert.
 577:Generated_Source\PSoC4/Timer1.c **** *   Values:
 578:Generated_Source\PSoC4/Timer1.c **** *         - Timer1_INVERT_LINE   - Inverts the line output
 579:Generated_Source\PSoC4/Timer1.c **** *         - Timer1_INVERT_LINE_N - Inverts the line_n output
 580:Generated_Source\PSoC4/Timer1.c **** *
 581:Generated_Source\PSoC4/Timer1.c **** * Return:
 582:Generated_Source\PSoC4/Timer1.c **** *  None
 583:Generated_Source\PSoC4/Timer1.c **** *
 584:Generated_Source\PSoC4/Timer1.c **** *******************************************************************************/
 585:Generated_Source\PSoC4/Timer1.c **** void Timer1_SetPWMInvert(uint32 mask)
 586:Generated_Source\PSoC4/Timer1.c **** {
 434              		.loc 1 586 0
 435              		.cfi_startproc
 436              		@ args = 0, pretend = 0, frame = 0
 437              		@ frame_needed = 0, uses_anonymous_args = 0
 438              	.LVL32:
 439 0000 10B5     		push	{r4, lr}
 440              		.cfi_def_cfa_offset 8
ARM GAS  C:\Users\mac_000\AppData\Local\Temp\ccHYHBYg.s 			page 19


 441              		.cfi_offset 4, -8
 442              		.cfi_offset 14, -4
 443 0002 0400     		movs	r4, r0
 587:Generated_Source\PSoC4/Timer1.c ****     uint8 enableInterrupts;
 588:Generated_Source\PSoC4/Timer1.c **** 
 589:Generated_Source\PSoC4/Timer1.c ****     enableInterrupts = CyEnterCriticalSection();
 444              		.loc 1 589 0
 445 0004 FFF7FEFF 		bl	CyEnterCriticalSection
 446              	.LVL33:
 590:Generated_Source\PSoC4/Timer1.c **** 
 591:Generated_Source\PSoC4/Timer1.c ****     Timer1_CONTROL_REG &= (uint32)~Timer1_INV_OUT_MASK;
 447              		.loc 1 591 0
 448 0008 054B     		ldr	r3, .L29
 449 000a 1968     		ldr	r1, [r3]
 450 000c 054A     		ldr	r2, .L29+4
 451 000e 0A40     		ands	r2, r1
 452 0010 1A60     		str	r2, [r3]
 592:Generated_Source\PSoC4/Timer1.c ****     Timer1_CONTROL_REG |= mask;
 453              		.loc 1 592 0
 454 0012 1A68     		ldr	r2, [r3]
 455 0014 1443     		orrs	r4, r2
 456              	.LVL34:
 457 0016 1C60     		str	r4, [r3]
 593:Generated_Source\PSoC4/Timer1.c **** 
 594:Generated_Source\PSoC4/Timer1.c ****     CyExitCriticalSection(enableInterrupts);
 458              		.loc 1 594 0
 459 0018 FFF7FEFF 		bl	CyExitCriticalSection
 460              	.LVL35:
 595:Generated_Source\PSoC4/Timer1.c **** }
 461              		.loc 1 595 0
 462              		@ sp needed
 463 001c 10BD     		pop	{r4, pc}
 464              	.L30:
 465 001e C046     		.align	2
 466              	.L29:
 467 0020 00010540 		.word	1074069760
 468 0024 FFFFCFFF 		.word	-3145729
 469              		.cfi_endproc
 470              	.LFE12:
 471              		.size	Timer1_SetPWMInvert, .-Timer1_SetPWMInvert
 472              		.section	.text.Timer1_WriteCounter,"ax",%progbits
 473              		.align	2
 474              		.global	Timer1_WriteCounter
 475              		.code	16
 476              		.thumb_func
 477              		.type	Timer1_WriteCounter, %function
 478              	Timer1_WriteCounter:
 479              	.LFB13:
 596:Generated_Source\PSoC4/Timer1.c **** 
 597:Generated_Source\PSoC4/Timer1.c **** 
 598:Generated_Source\PSoC4/Timer1.c **** 
 599:Generated_Source\PSoC4/Timer1.c **** /*******************************************************************************
 600:Generated_Source\PSoC4/Timer1.c **** * Function Name: Timer1_WriteCounter
 601:Generated_Source\PSoC4/Timer1.c **** ********************************************************************************
 602:Generated_Source\PSoC4/Timer1.c **** *
 603:Generated_Source\PSoC4/Timer1.c **** * Summary:
 604:Generated_Source\PSoC4/Timer1.c **** *  Writes a new 16bit counter value directly into the counter register, thus
ARM GAS  C:\Users\mac_000\AppData\Local\Temp\ccHYHBYg.s 			page 20


 605:Generated_Source\PSoC4/Timer1.c **** *  setting the counter (not the period) to the value written. It is not
 606:Generated_Source\PSoC4/Timer1.c **** *  advised to write to this field when the counter is running.
 607:Generated_Source\PSoC4/Timer1.c **** *
 608:Generated_Source\PSoC4/Timer1.c **** * Parameters:
 609:Generated_Source\PSoC4/Timer1.c **** *  count: value to write
 610:Generated_Source\PSoC4/Timer1.c **** *
 611:Generated_Source\PSoC4/Timer1.c **** * Return:
 612:Generated_Source\PSoC4/Timer1.c **** *  None
 613:Generated_Source\PSoC4/Timer1.c **** *
 614:Generated_Source\PSoC4/Timer1.c **** *******************************************************************************/
 615:Generated_Source\PSoC4/Timer1.c **** void Timer1_WriteCounter(uint32 count)
 616:Generated_Source\PSoC4/Timer1.c **** {
 480              		.loc 1 616 0
 481              		.cfi_startproc
 482              		@ args = 0, pretend = 0, frame = 0
 483              		@ frame_needed = 0, uses_anonymous_args = 0
 484              		@ link register save eliminated.
 485              	.LVL36:
 617:Generated_Source\PSoC4/Timer1.c ****     Timer1_COUNTER_REG = (count & Timer1_16BIT_MASK);
 486              		.loc 1 617 0
 487 0000 0004     		lsls	r0, r0, #16
 488              	.LVL37:
 489 0002 000C     		lsrs	r0, r0, #16
 490 0004 014B     		ldr	r3, .L32
 491 0006 1860     		str	r0, [r3]
 618:Generated_Source\PSoC4/Timer1.c **** }
 492              		.loc 1 618 0
 493              		@ sp needed
 494 0008 7047     		bx	lr
 495              	.L33:
 496 000a C046     		.align	2
 497              	.L32:
 498 000c 08010540 		.word	1074069768
 499              		.cfi_endproc
 500              	.LFE13:
 501              		.size	Timer1_WriteCounter, .-Timer1_WriteCounter
 502              		.section	.text.Timer1_ReadCounter,"ax",%progbits
 503              		.align	2
 504              		.global	Timer1_ReadCounter
 505              		.code	16
 506              		.thumb_func
 507              		.type	Timer1_ReadCounter, %function
 508              	Timer1_ReadCounter:
 509              	.LFB14:
 619:Generated_Source\PSoC4/Timer1.c **** 
 620:Generated_Source\PSoC4/Timer1.c **** 
 621:Generated_Source\PSoC4/Timer1.c **** /*******************************************************************************
 622:Generated_Source\PSoC4/Timer1.c **** * Function Name: Timer1_ReadCounter
 623:Generated_Source\PSoC4/Timer1.c **** ********************************************************************************
 624:Generated_Source\PSoC4/Timer1.c **** *
 625:Generated_Source\PSoC4/Timer1.c **** * Summary:
 626:Generated_Source\PSoC4/Timer1.c **** *  Reads the current counter value.
 627:Generated_Source\PSoC4/Timer1.c **** *
 628:Generated_Source\PSoC4/Timer1.c **** * Parameters:
 629:Generated_Source\PSoC4/Timer1.c **** *  None
 630:Generated_Source\PSoC4/Timer1.c **** *
 631:Generated_Source\PSoC4/Timer1.c **** * Return:
ARM GAS  C:\Users\mac_000\AppData\Local\Temp\ccHYHBYg.s 			page 21


 632:Generated_Source\PSoC4/Timer1.c **** *  Current counter value
 633:Generated_Source\PSoC4/Timer1.c **** *
 634:Generated_Source\PSoC4/Timer1.c **** *******************************************************************************/
 635:Generated_Source\PSoC4/Timer1.c **** uint32 Timer1_ReadCounter(void)
 636:Generated_Source\PSoC4/Timer1.c **** {
 510              		.loc 1 636 0
 511              		.cfi_startproc
 512              		@ args = 0, pretend = 0, frame = 0
 513              		@ frame_needed = 0, uses_anonymous_args = 0
 514              		@ link register save eliminated.
 637:Generated_Source\PSoC4/Timer1.c ****     return (Timer1_COUNTER_REG & Timer1_16BIT_MASK);
 515              		.loc 1 637 0
 516 0000 024B     		ldr	r3, .L35
 517 0002 1868     		ldr	r0, [r3]
 518 0004 0004     		lsls	r0, r0, #16
 519 0006 000C     		lsrs	r0, r0, #16
 638:Generated_Source\PSoC4/Timer1.c **** }
 520              		.loc 1 638 0
 521              		@ sp needed
 522 0008 7047     		bx	lr
 523              	.L36:
 524 000a C046     		.align	2
 525              	.L35:
 526 000c 08010540 		.word	1074069768
 527              		.cfi_endproc
 528              	.LFE14:
 529              		.size	Timer1_ReadCounter, .-Timer1_ReadCounter
 530              		.section	.text.Timer1_SetCounterMode,"ax",%progbits
 531              		.align	2
 532              		.global	Timer1_SetCounterMode
 533              		.code	16
 534              		.thumb_func
 535              		.type	Timer1_SetCounterMode, %function
 536              	Timer1_SetCounterMode:
 537              	.LFB15:
 639:Generated_Source\PSoC4/Timer1.c **** 
 640:Generated_Source\PSoC4/Timer1.c **** 
 641:Generated_Source\PSoC4/Timer1.c **** /*******************************************************************************
 642:Generated_Source\PSoC4/Timer1.c **** * Function Name: Timer1_SetCounterMode
 643:Generated_Source\PSoC4/Timer1.c **** ********************************************************************************
 644:Generated_Source\PSoC4/Timer1.c **** *
 645:Generated_Source\PSoC4/Timer1.c **** * Summary:
 646:Generated_Source\PSoC4/Timer1.c **** *  Sets the counter mode.  Applicable to all modes except Quadrature Decoder
 647:Generated_Source\PSoC4/Timer1.c **** *  and the PWM with a pseudo random output.
 648:Generated_Source\PSoC4/Timer1.c **** *
 649:Generated_Source\PSoC4/Timer1.c **** * Parameters:
 650:Generated_Source\PSoC4/Timer1.c **** *  counterMode: Enumerated counter type values
 651:Generated_Source\PSoC4/Timer1.c **** *   Values:
 652:Generated_Source\PSoC4/Timer1.c **** *     - Timer1_COUNT_UP       - Counts up
 653:Generated_Source\PSoC4/Timer1.c **** *     - Timer1_COUNT_DOWN     - Counts down
 654:Generated_Source\PSoC4/Timer1.c **** *     - Timer1_COUNT_UPDOWN0  - Counts up and down. Terminal count
 655:Generated_Source\PSoC4/Timer1.c **** *                                         generated when counter reaches 0
 656:Generated_Source\PSoC4/Timer1.c **** *     - Timer1_COUNT_UPDOWN1  - Counts up and down. Terminal count
 657:Generated_Source\PSoC4/Timer1.c **** *                                         generated both when counter reaches 0
 658:Generated_Source\PSoC4/Timer1.c **** *                                         and period
 659:Generated_Source\PSoC4/Timer1.c **** *
 660:Generated_Source\PSoC4/Timer1.c **** * Return:
ARM GAS  C:\Users\mac_000\AppData\Local\Temp\ccHYHBYg.s 			page 22


 661:Generated_Source\PSoC4/Timer1.c **** *  None
 662:Generated_Source\PSoC4/Timer1.c **** *
 663:Generated_Source\PSoC4/Timer1.c **** *******************************************************************************/
 664:Generated_Source\PSoC4/Timer1.c **** void Timer1_SetCounterMode(uint32 counterMode)
 665:Generated_Source\PSoC4/Timer1.c **** {
 538              		.loc 1 665 0
 539              		.cfi_startproc
 540              		@ args = 0, pretend = 0, frame = 0
 541              		@ frame_needed = 0, uses_anonymous_args = 0
 542              	.LVL38:
 543 0000 10B5     		push	{r4, lr}
 544              		.cfi_def_cfa_offset 8
 545              		.cfi_offset 4, -8
 546              		.cfi_offset 14, -4
 547 0002 0400     		movs	r4, r0
 666:Generated_Source\PSoC4/Timer1.c ****     uint8 enableInterrupts;
 667:Generated_Source\PSoC4/Timer1.c **** 
 668:Generated_Source\PSoC4/Timer1.c ****     enableInterrupts = CyEnterCriticalSection();
 548              		.loc 1 668 0
 549 0004 FFF7FEFF 		bl	CyEnterCriticalSection
 550              	.LVL39:
 669:Generated_Source\PSoC4/Timer1.c **** 
 670:Generated_Source\PSoC4/Timer1.c ****     Timer1_CONTROL_REG &= (uint32)~Timer1_UPDOWN_MASK;
 551              		.loc 1 670 0
 552 0008 054B     		ldr	r3, .L38
 553 000a 1968     		ldr	r1, [r3]
 554 000c 054A     		ldr	r2, .L38+4
 555 000e 0A40     		ands	r2, r1
 556 0010 1A60     		str	r2, [r3]
 671:Generated_Source\PSoC4/Timer1.c ****     Timer1_CONTROL_REG |= counterMode;
 557              		.loc 1 671 0
 558 0012 1A68     		ldr	r2, [r3]
 559 0014 1443     		orrs	r4, r2
 560              	.LVL40:
 561 0016 1C60     		str	r4, [r3]
 672:Generated_Source\PSoC4/Timer1.c **** 
 673:Generated_Source\PSoC4/Timer1.c ****     CyExitCriticalSection(enableInterrupts);
 562              		.loc 1 673 0
 563 0018 FFF7FEFF 		bl	CyExitCriticalSection
 564              	.LVL41:
 674:Generated_Source\PSoC4/Timer1.c **** }
 565              		.loc 1 674 0
 566              		@ sp needed
 567 001c 10BD     		pop	{r4, pc}
 568              	.L39:
 569 001e C046     		.align	2
 570              	.L38:
 571 0020 00010540 		.word	1074069760
 572 0024 FFFFFCFF 		.word	-196609
 573              		.cfi_endproc
 574              	.LFE15:
 575              		.size	Timer1_SetCounterMode, .-Timer1_SetCounterMode
 576              		.section	.text.Timer1_WritePeriod,"ax",%progbits
 577              		.align	2
 578              		.global	Timer1_WritePeriod
 579              		.code	16
 580              		.thumb_func
ARM GAS  C:\Users\mac_000\AppData\Local\Temp\ccHYHBYg.s 			page 23


 581              		.type	Timer1_WritePeriod, %function
 582              	Timer1_WritePeriod:
 583              	.LFB16:
 675:Generated_Source\PSoC4/Timer1.c **** 
 676:Generated_Source\PSoC4/Timer1.c **** 
 677:Generated_Source\PSoC4/Timer1.c **** /*******************************************************************************
 678:Generated_Source\PSoC4/Timer1.c **** * Function Name: Timer1_WritePeriod
 679:Generated_Source\PSoC4/Timer1.c **** ********************************************************************************
 680:Generated_Source\PSoC4/Timer1.c **** *
 681:Generated_Source\PSoC4/Timer1.c **** * Summary:
 682:Generated_Source\PSoC4/Timer1.c **** *  Writes the 16 bit period register with the new period value.
 683:Generated_Source\PSoC4/Timer1.c **** *  To cause the counter to count for N cycles this register should be written
 684:Generated_Source\PSoC4/Timer1.c **** *  with N-1 (counts from 0 to period inclusive).
 685:Generated_Source\PSoC4/Timer1.c **** *
 686:Generated_Source\PSoC4/Timer1.c **** * Parameters:
 687:Generated_Source\PSoC4/Timer1.c **** *  period: Period value
 688:Generated_Source\PSoC4/Timer1.c **** *
 689:Generated_Source\PSoC4/Timer1.c **** * Return:
 690:Generated_Source\PSoC4/Timer1.c **** *  None
 691:Generated_Source\PSoC4/Timer1.c **** *
 692:Generated_Source\PSoC4/Timer1.c **** *******************************************************************************/
 693:Generated_Source\PSoC4/Timer1.c **** void Timer1_WritePeriod(uint32 period)
 694:Generated_Source\PSoC4/Timer1.c **** {
 584              		.loc 1 694 0
 585              		.cfi_startproc
 586              		@ args = 0, pretend = 0, frame = 0
 587              		@ frame_needed = 0, uses_anonymous_args = 0
 588              		@ link register save eliminated.
 589              	.LVL42:
 695:Generated_Source\PSoC4/Timer1.c ****     Timer1_PERIOD_REG = (period & Timer1_16BIT_MASK);
 590              		.loc 1 695 0
 591 0000 0004     		lsls	r0, r0, #16
 592              	.LVL43:
 593 0002 000C     		lsrs	r0, r0, #16
 594 0004 014B     		ldr	r3, .L41
 595 0006 1860     		str	r0, [r3]
 696:Generated_Source\PSoC4/Timer1.c **** }
 596              		.loc 1 696 0
 597              		@ sp needed
 598 0008 7047     		bx	lr
 599              	.L42:
 600 000a C046     		.align	2
 601              	.L41:
 602 000c 14010540 		.word	1074069780
 603              		.cfi_endproc
 604              	.LFE16:
 605              		.size	Timer1_WritePeriod, .-Timer1_WritePeriod
 606              		.section	.text.Timer1_ReadPeriod,"ax",%progbits
 607              		.align	2
 608              		.global	Timer1_ReadPeriod
 609              		.code	16
 610              		.thumb_func
 611              		.type	Timer1_ReadPeriod, %function
 612              	Timer1_ReadPeriod:
 613              	.LFB17:
 697:Generated_Source\PSoC4/Timer1.c **** 
 698:Generated_Source\PSoC4/Timer1.c **** 
ARM GAS  C:\Users\mac_000\AppData\Local\Temp\ccHYHBYg.s 			page 24


 699:Generated_Source\PSoC4/Timer1.c **** /*******************************************************************************
 700:Generated_Source\PSoC4/Timer1.c **** * Function Name: Timer1_ReadPeriod
 701:Generated_Source\PSoC4/Timer1.c **** ********************************************************************************
 702:Generated_Source\PSoC4/Timer1.c **** *
 703:Generated_Source\PSoC4/Timer1.c **** * Summary:
 704:Generated_Source\PSoC4/Timer1.c **** *  Reads the 16 bit period register.
 705:Generated_Source\PSoC4/Timer1.c **** *
 706:Generated_Source\PSoC4/Timer1.c **** * Parameters:
 707:Generated_Source\PSoC4/Timer1.c **** *  None
 708:Generated_Source\PSoC4/Timer1.c **** *
 709:Generated_Source\PSoC4/Timer1.c **** * Return:
 710:Generated_Source\PSoC4/Timer1.c **** *  Period value
 711:Generated_Source\PSoC4/Timer1.c **** *
 712:Generated_Source\PSoC4/Timer1.c **** *******************************************************************************/
 713:Generated_Source\PSoC4/Timer1.c **** uint32 Timer1_ReadPeriod(void)
 714:Generated_Source\PSoC4/Timer1.c **** {
 614              		.loc 1 714 0
 615              		.cfi_startproc
 616              		@ args = 0, pretend = 0, frame = 0
 617              		@ frame_needed = 0, uses_anonymous_args = 0
 618              		@ link register save eliminated.
 715:Generated_Source\PSoC4/Timer1.c ****     return (Timer1_PERIOD_REG & Timer1_16BIT_MASK);
 619              		.loc 1 715 0
 620 0000 024B     		ldr	r3, .L44
 621 0002 1868     		ldr	r0, [r3]
 622 0004 0004     		lsls	r0, r0, #16
 623 0006 000C     		lsrs	r0, r0, #16
 716:Generated_Source\PSoC4/Timer1.c **** }
 624              		.loc 1 716 0
 625              		@ sp needed
 626 0008 7047     		bx	lr
 627              	.L45:
 628 000a C046     		.align	2
 629              	.L44:
 630 000c 14010540 		.word	1074069780
 631              		.cfi_endproc
 632              	.LFE17:
 633              		.size	Timer1_ReadPeriod, .-Timer1_ReadPeriod
 634              		.section	.text.Timer1_SetCompareSwap,"ax",%progbits
 635              		.align	2
 636              		.global	Timer1_SetCompareSwap
 637              		.code	16
 638              		.thumb_func
 639              		.type	Timer1_SetCompareSwap, %function
 640              	Timer1_SetCompareSwap:
 641              	.LFB18:
 717:Generated_Source\PSoC4/Timer1.c **** 
 718:Generated_Source\PSoC4/Timer1.c **** 
 719:Generated_Source\PSoC4/Timer1.c **** /*******************************************************************************
 720:Generated_Source\PSoC4/Timer1.c **** * Function Name: Timer1_SetCompareSwap
 721:Generated_Source\PSoC4/Timer1.c **** ********************************************************************************
 722:Generated_Source\PSoC4/Timer1.c **** *
 723:Generated_Source\PSoC4/Timer1.c **** * Summary:
 724:Generated_Source\PSoC4/Timer1.c **** *  Writes the register that controls whether the compare registers are
 725:Generated_Source\PSoC4/Timer1.c **** *  swapped. When enabled in the Timer/Counter mode(without capture) the swap
 726:Generated_Source\PSoC4/Timer1.c **** *  occurs at a TC event. In the PWM mode the swap occurs at the next TC event
 727:Generated_Source\PSoC4/Timer1.c **** *  following a hardware switch event.
ARM GAS  C:\Users\mac_000\AppData\Local\Temp\ccHYHBYg.s 			page 25


 728:Generated_Source\PSoC4/Timer1.c **** *
 729:Generated_Source\PSoC4/Timer1.c **** * Parameters:
 730:Generated_Source\PSoC4/Timer1.c **** *  swapEnable
 731:Generated_Source\PSoC4/Timer1.c **** *   Values:
 732:Generated_Source\PSoC4/Timer1.c **** *     - 0 - Disable swap
 733:Generated_Source\PSoC4/Timer1.c **** *     - 1 - Enable swap
 734:Generated_Source\PSoC4/Timer1.c **** *
 735:Generated_Source\PSoC4/Timer1.c **** * Return:
 736:Generated_Source\PSoC4/Timer1.c **** *  None
 737:Generated_Source\PSoC4/Timer1.c **** *
 738:Generated_Source\PSoC4/Timer1.c **** *******************************************************************************/
 739:Generated_Source\PSoC4/Timer1.c **** void Timer1_SetCompareSwap(uint32 swapEnable)
 740:Generated_Source\PSoC4/Timer1.c **** {
 642              		.loc 1 740 0
 643              		.cfi_startproc
 644              		@ args = 0, pretend = 0, frame = 0
 645              		@ frame_needed = 0, uses_anonymous_args = 0
 646              	.LVL44:
 647 0000 10B5     		push	{r4, lr}
 648              		.cfi_def_cfa_offset 8
 649              		.cfi_offset 4, -8
 650              		.cfi_offset 14, -4
 651 0002 0400     		movs	r4, r0
 741:Generated_Source\PSoC4/Timer1.c ****     uint8 enableInterrupts;
 742:Generated_Source\PSoC4/Timer1.c **** 
 743:Generated_Source\PSoC4/Timer1.c ****     enableInterrupts = CyEnterCriticalSection();
 652              		.loc 1 743 0
 653 0004 FFF7FEFF 		bl	CyEnterCriticalSection
 654              	.LVL45:
 744:Generated_Source\PSoC4/Timer1.c **** 
 745:Generated_Source\PSoC4/Timer1.c ****     Timer1_CONTROL_REG &= (uint32)~Timer1_RELOAD_CC_MASK;
 655              		.loc 1 745 0
 656 0008 054B     		ldr	r3, .L47
 657 000a 1A68     		ldr	r2, [r3]
 658 000c 0121     		movs	r1, #1
 659 000e 8A43     		bics	r2, r1
 660 0010 1A60     		str	r2, [r3]
 746:Generated_Source\PSoC4/Timer1.c ****     Timer1_CONTROL_REG |= (swapEnable & Timer1_1BIT_MASK);
 661              		.loc 1 746 0
 662 0012 1A68     		ldr	r2, [r3]
 663 0014 0C40     		ands	r4, r1
 664              	.LVL46:
 665 0016 1443     		orrs	r4, r2
 666 0018 1C60     		str	r4, [r3]
 747:Generated_Source\PSoC4/Timer1.c **** 
 748:Generated_Source\PSoC4/Timer1.c ****     CyExitCriticalSection(enableInterrupts);
 667              		.loc 1 748 0
 668 001a FFF7FEFF 		bl	CyExitCriticalSection
 669              	.LVL47:
 749:Generated_Source\PSoC4/Timer1.c **** }
 670              		.loc 1 749 0
 671              		@ sp needed
 672 001e 10BD     		pop	{r4, pc}
 673              	.L48:
 674              		.align	2
 675              	.L47:
 676 0020 00010540 		.word	1074069760
ARM GAS  C:\Users\mac_000\AppData\Local\Temp\ccHYHBYg.s 			page 26


 677              		.cfi_endproc
 678              	.LFE18:
 679              		.size	Timer1_SetCompareSwap, .-Timer1_SetCompareSwap
 680              		.section	.text.Timer1_WritePeriodBuf,"ax",%progbits
 681              		.align	2
 682              		.global	Timer1_WritePeriodBuf
 683              		.code	16
 684              		.thumb_func
 685              		.type	Timer1_WritePeriodBuf, %function
 686              	Timer1_WritePeriodBuf:
 687              	.LFB19:
 750:Generated_Source\PSoC4/Timer1.c **** 
 751:Generated_Source\PSoC4/Timer1.c **** 
 752:Generated_Source\PSoC4/Timer1.c **** /*******************************************************************************
 753:Generated_Source\PSoC4/Timer1.c **** * Function Name: Timer1_WritePeriodBuf
 754:Generated_Source\PSoC4/Timer1.c **** ********************************************************************************
 755:Generated_Source\PSoC4/Timer1.c **** *
 756:Generated_Source\PSoC4/Timer1.c **** * Summary:
 757:Generated_Source\PSoC4/Timer1.c **** *  Writes the 16 bit period buf register with the new period value.
 758:Generated_Source\PSoC4/Timer1.c **** *
 759:Generated_Source\PSoC4/Timer1.c **** * Parameters:
 760:Generated_Source\PSoC4/Timer1.c **** *  periodBuf: Period value
 761:Generated_Source\PSoC4/Timer1.c **** *
 762:Generated_Source\PSoC4/Timer1.c **** * Return:
 763:Generated_Source\PSoC4/Timer1.c **** *  None
 764:Generated_Source\PSoC4/Timer1.c **** *
 765:Generated_Source\PSoC4/Timer1.c **** *******************************************************************************/
 766:Generated_Source\PSoC4/Timer1.c **** void Timer1_WritePeriodBuf(uint32 periodBuf)
 767:Generated_Source\PSoC4/Timer1.c **** {
 688              		.loc 1 767 0
 689              		.cfi_startproc
 690              		@ args = 0, pretend = 0, frame = 0
 691              		@ frame_needed = 0, uses_anonymous_args = 0
 692              		@ link register save eliminated.
 693              	.LVL48:
 768:Generated_Source\PSoC4/Timer1.c ****     Timer1_PERIOD_BUF_REG = (periodBuf & Timer1_16BIT_MASK);
 694              		.loc 1 768 0
 695 0000 0004     		lsls	r0, r0, #16
 696              	.LVL49:
 697 0002 000C     		lsrs	r0, r0, #16
 698 0004 014B     		ldr	r3, .L50
 699 0006 1860     		str	r0, [r3]
 769:Generated_Source\PSoC4/Timer1.c **** }
 700              		.loc 1 769 0
 701              		@ sp needed
 702 0008 7047     		bx	lr
 703              	.L51:
 704 000a C046     		.align	2
 705              	.L50:
 706 000c 18010540 		.word	1074069784
 707              		.cfi_endproc
 708              	.LFE19:
 709              		.size	Timer1_WritePeriodBuf, .-Timer1_WritePeriodBuf
 710              		.section	.text.Timer1_ReadPeriodBuf,"ax",%progbits
 711              		.align	2
 712              		.global	Timer1_ReadPeriodBuf
 713              		.code	16
ARM GAS  C:\Users\mac_000\AppData\Local\Temp\ccHYHBYg.s 			page 27


 714              		.thumb_func
 715              		.type	Timer1_ReadPeriodBuf, %function
 716              	Timer1_ReadPeriodBuf:
 717              	.LFB20:
 770:Generated_Source\PSoC4/Timer1.c **** 
 771:Generated_Source\PSoC4/Timer1.c **** 
 772:Generated_Source\PSoC4/Timer1.c **** /*******************************************************************************
 773:Generated_Source\PSoC4/Timer1.c **** * Function Name: Timer1_ReadPeriodBuf
 774:Generated_Source\PSoC4/Timer1.c **** ********************************************************************************
 775:Generated_Source\PSoC4/Timer1.c **** *
 776:Generated_Source\PSoC4/Timer1.c **** * Summary:
 777:Generated_Source\PSoC4/Timer1.c **** *  Reads the 16 bit period buf register.
 778:Generated_Source\PSoC4/Timer1.c **** *
 779:Generated_Source\PSoC4/Timer1.c **** * Parameters:
 780:Generated_Source\PSoC4/Timer1.c **** *  None
 781:Generated_Source\PSoC4/Timer1.c **** *
 782:Generated_Source\PSoC4/Timer1.c **** * Return:
 783:Generated_Source\PSoC4/Timer1.c **** *  Period value
 784:Generated_Source\PSoC4/Timer1.c **** *
 785:Generated_Source\PSoC4/Timer1.c **** *******************************************************************************/
 786:Generated_Source\PSoC4/Timer1.c **** uint32 Timer1_ReadPeriodBuf(void)
 787:Generated_Source\PSoC4/Timer1.c **** {
 718              		.loc 1 787 0
 719              		.cfi_startproc
 720              		@ args = 0, pretend = 0, frame = 0
 721              		@ frame_needed = 0, uses_anonymous_args = 0
 722              		@ link register save eliminated.
 788:Generated_Source\PSoC4/Timer1.c ****     return (Timer1_PERIOD_BUF_REG & Timer1_16BIT_MASK);
 723              		.loc 1 788 0
 724 0000 024B     		ldr	r3, .L53
 725 0002 1868     		ldr	r0, [r3]
 726 0004 0004     		lsls	r0, r0, #16
 727 0006 000C     		lsrs	r0, r0, #16
 789:Generated_Source\PSoC4/Timer1.c **** }
 728              		.loc 1 789 0
 729              		@ sp needed
 730 0008 7047     		bx	lr
 731              	.L54:
 732 000a C046     		.align	2
 733              	.L53:
 734 000c 18010540 		.word	1074069784
 735              		.cfi_endproc
 736              	.LFE20:
 737              		.size	Timer1_ReadPeriodBuf, .-Timer1_ReadPeriodBuf
 738              		.section	.text.Timer1_SetPeriodSwap,"ax",%progbits
 739              		.align	2
 740              		.global	Timer1_SetPeriodSwap
 741              		.code	16
 742              		.thumb_func
 743              		.type	Timer1_SetPeriodSwap, %function
 744              	Timer1_SetPeriodSwap:
 745              	.LFB21:
 790:Generated_Source\PSoC4/Timer1.c **** 
 791:Generated_Source\PSoC4/Timer1.c **** 
 792:Generated_Source\PSoC4/Timer1.c **** /*******************************************************************************
 793:Generated_Source\PSoC4/Timer1.c **** * Function Name: Timer1_SetPeriodSwap
 794:Generated_Source\PSoC4/Timer1.c **** ********************************************************************************
ARM GAS  C:\Users\mac_000\AppData\Local\Temp\ccHYHBYg.s 			page 28


 795:Generated_Source\PSoC4/Timer1.c **** *
 796:Generated_Source\PSoC4/Timer1.c **** * Summary:
 797:Generated_Source\PSoC4/Timer1.c **** *  Writes the register that controls whether the period registers are
 798:Generated_Source\PSoC4/Timer1.c **** *  swapped. When enabled in Timer/Counter mode the swap occurs at a TC event.
 799:Generated_Source\PSoC4/Timer1.c **** *  In the PWM mode the swap occurs at the next TC event following a hardware
 800:Generated_Source\PSoC4/Timer1.c **** *  switch event.
 801:Generated_Source\PSoC4/Timer1.c **** *
 802:Generated_Source\PSoC4/Timer1.c **** * Parameters:
 803:Generated_Source\PSoC4/Timer1.c **** *  swapEnable
 804:Generated_Source\PSoC4/Timer1.c **** *   Values:
 805:Generated_Source\PSoC4/Timer1.c **** *     - 0 - Disable swap
 806:Generated_Source\PSoC4/Timer1.c **** *     - 1 - Enable swap
 807:Generated_Source\PSoC4/Timer1.c **** *
 808:Generated_Source\PSoC4/Timer1.c **** * Return:
 809:Generated_Source\PSoC4/Timer1.c **** *  None
 810:Generated_Source\PSoC4/Timer1.c **** *
 811:Generated_Source\PSoC4/Timer1.c **** *******************************************************************************/
 812:Generated_Source\PSoC4/Timer1.c **** void Timer1_SetPeriodSwap(uint32 swapEnable)
 813:Generated_Source\PSoC4/Timer1.c **** {
 746              		.loc 1 813 0
 747              		.cfi_startproc
 748              		@ args = 0, pretend = 0, frame = 0
 749              		@ frame_needed = 0, uses_anonymous_args = 0
 750              	.LVL50:
 751 0000 70B5     		push	{r4, r5, r6, lr}
 752              		.cfi_def_cfa_offset 16
 753              		.cfi_offset 4, -16
 754              		.cfi_offset 5, -12
 755              		.cfi_offset 6, -8
 756              		.cfi_offset 14, -4
 757 0002 0400     		movs	r4, r0
 814:Generated_Source\PSoC4/Timer1.c ****     uint8 enableInterrupts;
 815:Generated_Source\PSoC4/Timer1.c **** 
 816:Generated_Source\PSoC4/Timer1.c ****     enableInterrupts = CyEnterCriticalSection();
 758              		.loc 1 816 0
 759 0004 FFF7FEFF 		bl	CyEnterCriticalSection
 760              	.LVL51:
 817:Generated_Source\PSoC4/Timer1.c **** 
 818:Generated_Source\PSoC4/Timer1.c ****     Timer1_CONTROL_REG &= (uint32)~Timer1_RELOAD_PERIOD_MASK;
 761              		.loc 1 818 0
 762 0008 064A     		ldr	r2, .L56
 763 000a 1368     		ldr	r3, [r2]
 764 000c 0221     		movs	r1, #2
 765 000e 8B43     		bics	r3, r1
 766 0010 1360     		str	r3, [r2]
 819:Generated_Source\PSoC4/Timer1.c ****     Timer1_CONTROL_REG |= ((uint32)((swapEnable & Timer1_1BIT_MASK) <<
 767              		.loc 1 819 0
 768 0012 1568     		ldr	r5, [r2]
 769 0014 6300     		lsls	r3, r4, #1
 770 0016 1940     		ands	r1, r3
 771 0018 0C00     		movs	r4, r1
 772              	.LVL52:
 773 001a 2C43     		orrs	r4, r5
 774 001c 1460     		str	r4, [r2]
 820:Generated_Source\PSoC4/Timer1.c ****                                                             Timer1_RELOAD_PERIOD_SHIFT));
 821:Generated_Source\PSoC4/Timer1.c **** 
 822:Generated_Source\PSoC4/Timer1.c ****     CyExitCriticalSection(enableInterrupts);
ARM GAS  C:\Users\mac_000\AppData\Local\Temp\ccHYHBYg.s 			page 29


 775              		.loc 1 822 0
 776 001e FFF7FEFF 		bl	CyExitCriticalSection
 777              	.LVL53:
 823:Generated_Source\PSoC4/Timer1.c **** }
 778              		.loc 1 823 0
 779              		@ sp needed
 780 0022 70BD     		pop	{r4, r5, r6, pc}
 781              	.L57:
 782              		.align	2
 783              	.L56:
 784 0024 00010540 		.word	1074069760
 785              		.cfi_endproc
 786              	.LFE21:
 787              		.size	Timer1_SetPeriodSwap, .-Timer1_SetPeriodSwap
 788              		.section	.text.Timer1_WriteCompare,"ax",%progbits
 789              		.align	2
 790              		.global	Timer1_WriteCompare
 791              		.code	16
 792              		.thumb_func
 793              		.type	Timer1_WriteCompare, %function
 794              	Timer1_WriteCompare:
 795              	.LFB22:
 824:Generated_Source\PSoC4/Timer1.c **** 
 825:Generated_Source\PSoC4/Timer1.c **** 
 826:Generated_Source\PSoC4/Timer1.c **** /*******************************************************************************
 827:Generated_Source\PSoC4/Timer1.c **** * Function Name: Timer1_WriteCompare
 828:Generated_Source\PSoC4/Timer1.c **** ********************************************************************************
 829:Generated_Source\PSoC4/Timer1.c **** *
 830:Generated_Source\PSoC4/Timer1.c **** * Summary:
 831:Generated_Source\PSoC4/Timer1.c **** *  Writes the 16 bit compare register with the new compare value. Not
 832:Generated_Source\PSoC4/Timer1.c **** *  applicable for Timer/Counter with Capture or in Quadrature Decoder modes.
 833:Generated_Source\PSoC4/Timer1.c **** *
 834:Generated_Source\PSoC4/Timer1.c **** * Parameters:
 835:Generated_Source\PSoC4/Timer1.c **** *  compare: Compare value
 836:Generated_Source\PSoC4/Timer1.c **** *
 837:Generated_Source\PSoC4/Timer1.c **** * Return:
 838:Generated_Source\PSoC4/Timer1.c **** *  None
 839:Generated_Source\PSoC4/Timer1.c **** *
 840:Generated_Source\PSoC4/Timer1.c **** * Note:
 841:Generated_Source\PSoC4/Timer1.c **** *  It is not recommended to use the value equal to "0" or equal to 
 842:Generated_Source\PSoC4/Timer1.c **** *  "period value" in Center or Asymmetric align PWM modes on the 
 843:Generated_Source\PSoC4/Timer1.c **** *  PSoC 4100/PSoC 4200 devices.
 844:Generated_Source\PSoC4/Timer1.c **** *  PSoC 4000 devices write the 16 bit compare register with the decremented 
 845:Generated_Source\PSoC4/Timer1.c **** *  compare value in the Up counting mode (except 0x0u), and the incremented 
 846:Generated_Source\PSoC4/Timer1.c **** *  compare value in the Down counting mode (except 0xFFFFu).
 847:Generated_Source\PSoC4/Timer1.c **** *
 848:Generated_Source\PSoC4/Timer1.c **** *******************************************************************************/
 849:Generated_Source\PSoC4/Timer1.c **** void Timer1_WriteCompare(uint32 compare)
 850:Generated_Source\PSoC4/Timer1.c **** {
 796              		.loc 1 850 0
 797              		.cfi_startproc
 798              		@ args = 0, pretend = 0, frame = 0
 799              		@ frame_needed = 0, uses_anonymous_args = 0
 800              		@ link register save eliminated.
 801              	.LVL54:
 851:Generated_Source\PSoC4/Timer1.c ****     #if (Timer1_CY_TCPWM_4000)
 852:Generated_Source\PSoC4/Timer1.c ****         uint32 currentMode;
ARM GAS  C:\Users\mac_000\AppData\Local\Temp\ccHYHBYg.s 			page 30


 853:Generated_Source\PSoC4/Timer1.c ****     #endif /* (Timer1_CY_TCPWM_4000) */
 854:Generated_Source\PSoC4/Timer1.c **** 
 855:Generated_Source\PSoC4/Timer1.c ****     #if (Timer1_CY_TCPWM_4000)
 856:Generated_Source\PSoC4/Timer1.c ****         currentMode = ((Timer1_CONTROL_REG & Timer1_UPDOWN_MASK) >> Timer1_UPDOWN_SHIFT);
 802              		.loc 1 856 0
 803 0000 0A4B     		ldr	r3, .L61
 804 0002 1B68     		ldr	r3, [r3]
 805 0004 1B0C     		lsrs	r3, r3, #16
 806 0006 0322     		movs	r2, #3
 807 0008 1340     		ands	r3, r2
 808              	.LVL55:
 857:Generated_Source\PSoC4/Timer1.c **** 
 858:Generated_Source\PSoC4/Timer1.c ****         if (((uint32)Timer1__COUNT_DOWN == currentMode) && (0xFFFFu != compare))
 809              		.loc 1 858 0
 810 000a 012B     		cmp	r3, #1
 811 000c 04D1     		bne	.L59
 812              		.loc 1 858 0 is_stmt 0 discriminator 1
 813 000e 084A     		ldr	r2, .L61+4
 814 0010 9042     		cmp	r0, r2
 815 0012 01D0     		beq	.L59
 859:Generated_Source\PSoC4/Timer1.c ****         {
 860:Generated_Source\PSoC4/Timer1.c ****             compare++;
 816              		.loc 1 860 0 is_stmt 1
 817 0014 0130     		adds	r0, r0, #1
 818              	.LVL56:
 819 0016 04E0     		b	.L60
 820              	.L59:
 861:Generated_Source\PSoC4/Timer1.c ****         }
 862:Generated_Source\PSoC4/Timer1.c ****         else if (((uint32)Timer1__COUNT_UP == currentMode) && (0u != compare))
 821              		.loc 1 862 0
 822 0018 002B     		cmp	r3, #0
 823 001a 02D1     		bne	.L60
 824              		.loc 1 862 0 is_stmt 0 discriminator 1
 825 001c 0028     		cmp	r0, #0
 826 001e 00D0     		beq	.L60
 863:Generated_Source\PSoC4/Timer1.c ****         {
 864:Generated_Source\PSoC4/Timer1.c ****             compare--;
 827              		.loc 1 864 0 is_stmt 1
 828 0020 0138     		subs	r0, r0, #1
 829              	.LVL57:
 830              	.L60:
 865:Generated_Source\PSoC4/Timer1.c ****         }
 866:Generated_Source\PSoC4/Timer1.c ****         else
 867:Generated_Source\PSoC4/Timer1.c ****         {
 868:Generated_Source\PSoC4/Timer1.c ****         }
 869:Generated_Source\PSoC4/Timer1.c ****         
 870:Generated_Source\PSoC4/Timer1.c ****     
 871:Generated_Source\PSoC4/Timer1.c ****     #endif /* (Timer1_CY_TCPWM_4000) */
 872:Generated_Source\PSoC4/Timer1.c ****     
 873:Generated_Source\PSoC4/Timer1.c ****     Timer1_COMP_CAP_REG = (compare & Timer1_16BIT_MASK);
 831              		.loc 1 873 0
 832 0022 0004     		lsls	r0, r0, #16
 833              	.LVL58:
 834 0024 000C     		lsrs	r0, r0, #16
 835 0026 034B     		ldr	r3, .L61+8
 836              	.LVL59:
 837 0028 1860     		str	r0, [r3]
ARM GAS  C:\Users\mac_000\AppData\Local\Temp\ccHYHBYg.s 			page 31


 874:Generated_Source\PSoC4/Timer1.c **** }
 838              		.loc 1 874 0
 839              		@ sp needed
 840 002a 7047     		bx	lr
 841              	.L62:
 842              		.align	2
 843              	.L61:
 844 002c 00010540 		.word	1074069760
 845 0030 FFFF0000 		.word	65535
 846 0034 0C010540 		.word	1074069772
 847              		.cfi_endproc
 848              	.LFE22:
 849              		.size	Timer1_WriteCompare, .-Timer1_WriteCompare
 850              		.section	.text.Timer1_ReadCompare,"ax",%progbits
 851              		.align	2
 852              		.global	Timer1_ReadCompare
 853              		.code	16
 854              		.thumb_func
 855              		.type	Timer1_ReadCompare, %function
 856              	Timer1_ReadCompare:
 857              	.LFB23:
 875:Generated_Source\PSoC4/Timer1.c **** 
 876:Generated_Source\PSoC4/Timer1.c **** 
 877:Generated_Source\PSoC4/Timer1.c **** /*******************************************************************************
 878:Generated_Source\PSoC4/Timer1.c **** * Function Name: Timer1_ReadCompare
 879:Generated_Source\PSoC4/Timer1.c **** ********************************************************************************
 880:Generated_Source\PSoC4/Timer1.c **** *
 881:Generated_Source\PSoC4/Timer1.c **** * Summary:
 882:Generated_Source\PSoC4/Timer1.c **** *  Reads the compare register. Not applicable for Timer/Counter with Capture
 883:Generated_Source\PSoC4/Timer1.c **** *  or in Quadrature Decoder modes.
 884:Generated_Source\PSoC4/Timer1.c **** *  PSoC 4000 devices read the incremented compare register value in the 
 885:Generated_Source\PSoC4/Timer1.c **** *  Up counting mode (except 0xFFFFu), and the decremented value in the 
 886:Generated_Source\PSoC4/Timer1.c **** *  Down counting mode (except 0x0u).
 887:Generated_Source\PSoC4/Timer1.c **** *
 888:Generated_Source\PSoC4/Timer1.c **** * Parameters:
 889:Generated_Source\PSoC4/Timer1.c **** *  None
 890:Generated_Source\PSoC4/Timer1.c **** *
 891:Generated_Source\PSoC4/Timer1.c **** * Return:
 892:Generated_Source\PSoC4/Timer1.c **** *  Compare value
 893:Generated_Source\PSoC4/Timer1.c **** *
 894:Generated_Source\PSoC4/Timer1.c **** * Note:
 895:Generated_Source\PSoC4/Timer1.c **** *  PSoC 4000 devices read the incremented compare register value in the 
 896:Generated_Source\PSoC4/Timer1.c **** *  Up counting mode (except 0xFFFFu), and the decremented value in the 
 897:Generated_Source\PSoC4/Timer1.c **** *  Down counting mode (except 0x0u).
 898:Generated_Source\PSoC4/Timer1.c **** *
 899:Generated_Source\PSoC4/Timer1.c **** *******************************************************************************/
 900:Generated_Source\PSoC4/Timer1.c **** uint32 Timer1_ReadCompare(void)
 901:Generated_Source\PSoC4/Timer1.c **** {
 858              		.loc 1 901 0
 859              		.cfi_startproc
 860              		@ args = 0, pretend = 0, frame = 0
 861              		@ frame_needed = 0, uses_anonymous_args = 0
 862              		@ link register save eliminated.
 902:Generated_Source\PSoC4/Timer1.c ****     #if (Timer1_CY_TCPWM_4000)
 903:Generated_Source\PSoC4/Timer1.c ****         uint32 currentMode;
 904:Generated_Source\PSoC4/Timer1.c ****         uint32 regVal;
 905:Generated_Source\PSoC4/Timer1.c ****     #endif /* (Timer1_CY_TCPWM_4000) */
ARM GAS  C:\Users\mac_000\AppData\Local\Temp\ccHYHBYg.s 			page 32


 906:Generated_Source\PSoC4/Timer1.c **** 
 907:Generated_Source\PSoC4/Timer1.c ****     #if (Timer1_CY_TCPWM_4000)
 908:Generated_Source\PSoC4/Timer1.c ****         currentMode = ((Timer1_CONTROL_REG & Timer1_UPDOWN_MASK) >> Timer1_UPDOWN_SHIFT);
 863              		.loc 1 908 0
 864 0000 0A4B     		ldr	r3, .L66
 865 0002 1B68     		ldr	r3, [r3]
 866 0004 1B0C     		lsrs	r3, r3, #16
 867 0006 0322     		movs	r2, #3
 868 0008 1340     		ands	r3, r2
 869              	.LVL60:
 909:Generated_Source\PSoC4/Timer1.c ****         
 910:Generated_Source\PSoC4/Timer1.c ****         regVal = Timer1_COMP_CAP_REG;
 870              		.loc 1 910 0
 871 000a 094A     		ldr	r2, .L66+4
 872 000c 1068     		ldr	r0, [r2]
 873              	.LVL61:
 911:Generated_Source\PSoC4/Timer1.c ****         
 912:Generated_Source\PSoC4/Timer1.c ****         if (((uint32)Timer1__COUNT_DOWN == currentMode) && (0u != regVal))
 874              		.loc 1 912 0
 875 000e 012B     		cmp	r3, #1
 876 0010 03D1     		bne	.L64
 877              		.loc 1 912 0 is_stmt 0 discriminator 1
 878 0012 0028     		cmp	r0, #0
 879 0014 01D0     		beq	.L64
 913:Generated_Source\PSoC4/Timer1.c ****         {
 914:Generated_Source\PSoC4/Timer1.c ****             regVal--;
 880              		.loc 1 914 0 is_stmt 1
 881 0016 0138     		subs	r0, r0, #1
 882              	.LVL62:
 883 0018 05E0     		b	.L65
 884              	.L64:
 915:Generated_Source\PSoC4/Timer1.c ****         }
 916:Generated_Source\PSoC4/Timer1.c ****         else if (((uint32)Timer1__COUNT_UP == currentMode) && (0xFFFFu != regVal))
 885              		.loc 1 916 0
 886 001a 002B     		cmp	r3, #0
 887 001c 03D1     		bne	.L65
 888              		.loc 1 916 0 is_stmt 0 discriminator 1
 889 001e 054B     		ldr	r3, .L66+8
 890              	.LVL63:
 891 0020 9842     		cmp	r0, r3
 892 0022 00D0     		beq	.L65
 917:Generated_Source\PSoC4/Timer1.c ****         {
 918:Generated_Source\PSoC4/Timer1.c ****             regVal++;
 893              		.loc 1 918 0 is_stmt 1
 894 0024 0130     		adds	r0, r0, #1
 895              	.LVL64:
 896              	.L65:
 919:Generated_Source\PSoC4/Timer1.c ****         }
 920:Generated_Source\PSoC4/Timer1.c ****         else
 921:Generated_Source\PSoC4/Timer1.c ****         {
 922:Generated_Source\PSoC4/Timer1.c ****         }
 923:Generated_Source\PSoC4/Timer1.c **** 
 924:Generated_Source\PSoC4/Timer1.c ****         return (regVal & Timer1_16BIT_MASK);
 897              		.loc 1 924 0
 898 0026 0004     		lsls	r0, r0, #16
 899              	.LVL65:
 900 0028 000C     		lsrs	r0, r0, #16
ARM GAS  C:\Users\mac_000\AppData\Local\Temp\ccHYHBYg.s 			page 33


 925:Generated_Source\PSoC4/Timer1.c ****     #else
 926:Generated_Source\PSoC4/Timer1.c ****         return (Timer1_COMP_CAP_REG & Timer1_16BIT_MASK);
 927:Generated_Source\PSoC4/Timer1.c ****     #endif /* (Timer1_CY_TCPWM_4000) */
 928:Generated_Source\PSoC4/Timer1.c **** }
 901              		.loc 1 928 0
 902              		@ sp needed
 903 002a 7047     		bx	lr
 904              	.L67:
 905              		.align	2
 906              	.L66:
 907 002c 00010540 		.word	1074069760
 908 0030 0C010540 		.word	1074069772
 909 0034 FFFF0000 		.word	65535
 910              		.cfi_endproc
 911              	.LFE23:
 912              		.size	Timer1_ReadCompare, .-Timer1_ReadCompare
 913              		.section	.text.Timer1_WriteCompareBuf,"ax",%progbits
 914              		.align	2
 915              		.global	Timer1_WriteCompareBuf
 916              		.code	16
 917              		.thumb_func
 918              		.type	Timer1_WriteCompareBuf, %function
 919              	Timer1_WriteCompareBuf:
 920              	.LFB24:
 929:Generated_Source\PSoC4/Timer1.c **** 
 930:Generated_Source\PSoC4/Timer1.c **** 
 931:Generated_Source\PSoC4/Timer1.c **** /*******************************************************************************
 932:Generated_Source\PSoC4/Timer1.c **** * Function Name: Timer1_WriteCompareBuf
 933:Generated_Source\PSoC4/Timer1.c **** ********************************************************************************
 934:Generated_Source\PSoC4/Timer1.c **** *
 935:Generated_Source\PSoC4/Timer1.c **** * Summary:
 936:Generated_Source\PSoC4/Timer1.c **** *  Writes the 16 bit compare buffer register with the new compare value. Not
 937:Generated_Source\PSoC4/Timer1.c **** *  applicable for Timer/Counter with Capture or in Quadrature Decoder modes.
 938:Generated_Source\PSoC4/Timer1.c **** *
 939:Generated_Source\PSoC4/Timer1.c **** * Parameters:
 940:Generated_Source\PSoC4/Timer1.c **** *  compareBuf: Compare value
 941:Generated_Source\PSoC4/Timer1.c **** *
 942:Generated_Source\PSoC4/Timer1.c **** * Return:
 943:Generated_Source\PSoC4/Timer1.c **** *  None
 944:Generated_Source\PSoC4/Timer1.c **** *
 945:Generated_Source\PSoC4/Timer1.c **** * Note:
 946:Generated_Source\PSoC4/Timer1.c **** *  It is not recommended to use the value equal to "0" or equal to 
 947:Generated_Source\PSoC4/Timer1.c **** *  "period value" in Center or Asymmetric align PWM modes on the 
 948:Generated_Source\PSoC4/Timer1.c **** *  PSoC 4100/PSoC 4200 devices.
 949:Generated_Source\PSoC4/Timer1.c **** *  PSoC 4000 devices write the 16 bit compare register with the decremented 
 950:Generated_Source\PSoC4/Timer1.c **** *  compare value in the Up counting mode (except 0x0u), and the incremented 
 951:Generated_Source\PSoC4/Timer1.c **** *  compare value in the Down counting mode (except 0xFFFFu).
 952:Generated_Source\PSoC4/Timer1.c **** *
 953:Generated_Source\PSoC4/Timer1.c **** *******************************************************************************/
 954:Generated_Source\PSoC4/Timer1.c **** void Timer1_WriteCompareBuf(uint32 compareBuf)
 955:Generated_Source\PSoC4/Timer1.c **** {
 921              		.loc 1 955 0
 922              		.cfi_startproc
 923              		@ args = 0, pretend = 0, frame = 0
 924              		@ frame_needed = 0, uses_anonymous_args = 0
 925              		@ link register save eliminated.
 926              	.LVL66:
ARM GAS  C:\Users\mac_000\AppData\Local\Temp\ccHYHBYg.s 			page 34


 956:Generated_Source\PSoC4/Timer1.c ****     #if (Timer1_CY_TCPWM_4000)
 957:Generated_Source\PSoC4/Timer1.c ****         uint32 currentMode;
 958:Generated_Source\PSoC4/Timer1.c ****     #endif /* (Timer1_CY_TCPWM_4000) */
 959:Generated_Source\PSoC4/Timer1.c **** 
 960:Generated_Source\PSoC4/Timer1.c ****     #if (Timer1_CY_TCPWM_4000)
 961:Generated_Source\PSoC4/Timer1.c ****         currentMode = ((Timer1_CONTROL_REG & Timer1_UPDOWN_MASK) >> Timer1_UPDOWN_SHIFT);
 927              		.loc 1 961 0
 928 0000 0A4B     		ldr	r3, .L71
 929 0002 1B68     		ldr	r3, [r3]
 930 0004 1B0C     		lsrs	r3, r3, #16
 931 0006 0322     		movs	r2, #3
 932 0008 1340     		ands	r3, r2
 933              	.LVL67:
 962:Generated_Source\PSoC4/Timer1.c **** 
 963:Generated_Source\PSoC4/Timer1.c ****         if (((uint32)Timer1__COUNT_DOWN == currentMode) && (0xFFFFu != compareBuf))
 934              		.loc 1 963 0
 935 000a 012B     		cmp	r3, #1
 936 000c 04D1     		bne	.L69
 937              		.loc 1 963 0 is_stmt 0 discriminator 1
 938 000e 084A     		ldr	r2, .L71+4
 939 0010 9042     		cmp	r0, r2
 940 0012 01D0     		beq	.L69
 964:Generated_Source\PSoC4/Timer1.c ****         {
 965:Generated_Source\PSoC4/Timer1.c ****             compareBuf++;
 941              		.loc 1 965 0 is_stmt 1
 942 0014 0130     		adds	r0, r0, #1
 943              	.LVL68:
 944 0016 04E0     		b	.L70
 945              	.L69:
 966:Generated_Source\PSoC4/Timer1.c ****         }
 967:Generated_Source\PSoC4/Timer1.c ****         else if (((uint32)Timer1__COUNT_UP == currentMode) && (0u != compareBuf))
 946              		.loc 1 967 0
 947 0018 002B     		cmp	r3, #0
 948 001a 02D1     		bne	.L70
 949              		.loc 1 967 0 is_stmt 0 discriminator 1
 950 001c 0028     		cmp	r0, #0
 951 001e 00D0     		beq	.L70
 968:Generated_Source\PSoC4/Timer1.c ****         {
 969:Generated_Source\PSoC4/Timer1.c ****             compareBuf --;
 952              		.loc 1 969 0 is_stmt 1
 953 0020 0138     		subs	r0, r0, #1
 954              	.LVL69:
 955              	.L70:
 970:Generated_Source\PSoC4/Timer1.c ****         }
 971:Generated_Source\PSoC4/Timer1.c ****         else
 972:Generated_Source\PSoC4/Timer1.c ****         {
 973:Generated_Source\PSoC4/Timer1.c ****         }
 974:Generated_Source\PSoC4/Timer1.c ****     #endif /* (Timer1_CY_TCPWM_4000) */
 975:Generated_Source\PSoC4/Timer1.c ****     
 976:Generated_Source\PSoC4/Timer1.c ****     Timer1_COMP_CAP_BUF_REG = (compareBuf & Timer1_16BIT_MASK);
 956              		.loc 1 976 0
 957 0022 0004     		lsls	r0, r0, #16
 958              	.LVL70:
 959 0024 000C     		lsrs	r0, r0, #16
 960 0026 034B     		ldr	r3, .L71+8
 961              	.LVL71:
 962 0028 1860     		str	r0, [r3]
ARM GAS  C:\Users\mac_000\AppData\Local\Temp\ccHYHBYg.s 			page 35


 977:Generated_Source\PSoC4/Timer1.c **** }
 963              		.loc 1 977 0
 964              		@ sp needed
 965 002a 7047     		bx	lr
 966              	.L72:
 967              		.align	2
 968              	.L71:
 969 002c 00010540 		.word	1074069760
 970 0030 FFFF0000 		.word	65535
 971 0034 10010540 		.word	1074069776
 972              		.cfi_endproc
 973              	.LFE24:
 974              		.size	Timer1_WriteCompareBuf, .-Timer1_WriteCompareBuf
 975              		.section	.text.Timer1_ReadCompareBuf,"ax",%progbits
 976              		.align	2
 977              		.global	Timer1_ReadCompareBuf
 978              		.code	16
 979              		.thumb_func
 980              		.type	Timer1_ReadCompareBuf, %function
 981              	Timer1_ReadCompareBuf:
 982              	.LFB25:
 978:Generated_Source\PSoC4/Timer1.c **** 
 979:Generated_Source\PSoC4/Timer1.c **** 
 980:Generated_Source\PSoC4/Timer1.c **** /*******************************************************************************
 981:Generated_Source\PSoC4/Timer1.c **** * Function Name: Timer1_ReadCompareBuf
 982:Generated_Source\PSoC4/Timer1.c **** ********************************************************************************
 983:Generated_Source\PSoC4/Timer1.c **** *
 984:Generated_Source\PSoC4/Timer1.c **** * Summary:
 985:Generated_Source\PSoC4/Timer1.c **** *  Reads the compare buffer register. Not applicable for Timer/Counter with
 986:Generated_Source\PSoC4/Timer1.c **** *  Capture or in Quadrature Decoder modes.
 987:Generated_Source\PSoC4/Timer1.c **** *
 988:Generated_Source\PSoC4/Timer1.c **** * Parameters:
 989:Generated_Source\PSoC4/Timer1.c **** *  None
 990:Generated_Source\PSoC4/Timer1.c **** *
 991:Generated_Source\PSoC4/Timer1.c **** * Return:
 992:Generated_Source\PSoC4/Timer1.c **** *  Compare buffer value
 993:Generated_Source\PSoC4/Timer1.c **** *
 994:Generated_Source\PSoC4/Timer1.c **** * Note:
 995:Generated_Source\PSoC4/Timer1.c **** *  PSoC 4000 devices read the incremented compare register value in the 
 996:Generated_Source\PSoC4/Timer1.c **** *  Up counting mode (except 0xFFFFu), and the decremented value in the 
 997:Generated_Source\PSoC4/Timer1.c **** *  Down counting mode (except 0x0u).
 998:Generated_Source\PSoC4/Timer1.c **** *
 999:Generated_Source\PSoC4/Timer1.c **** *******************************************************************************/
1000:Generated_Source\PSoC4/Timer1.c **** uint32 Timer1_ReadCompareBuf(void)
1001:Generated_Source\PSoC4/Timer1.c **** {
 983              		.loc 1 1001 0
 984              		.cfi_startproc
 985              		@ args = 0, pretend = 0, frame = 0
 986              		@ frame_needed = 0, uses_anonymous_args = 0
 987              		@ link register save eliminated.
1002:Generated_Source\PSoC4/Timer1.c ****     #if (Timer1_CY_TCPWM_4000)
1003:Generated_Source\PSoC4/Timer1.c ****         uint32 currentMode;
1004:Generated_Source\PSoC4/Timer1.c ****         uint32 regVal;
1005:Generated_Source\PSoC4/Timer1.c ****     #endif /* (Timer1_CY_TCPWM_4000) */
1006:Generated_Source\PSoC4/Timer1.c **** 
1007:Generated_Source\PSoC4/Timer1.c ****     #if (Timer1_CY_TCPWM_4000)
1008:Generated_Source\PSoC4/Timer1.c ****         currentMode = ((Timer1_CONTROL_REG & Timer1_UPDOWN_MASK) >> Timer1_UPDOWN_SHIFT);
ARM GAS  C:\Users\mac_000\AppData\Local\Temp\ccHYHBYg.s 			page 36


 988              		.loc 1 1008 0
 989 0000 0A4B     		ldr	r3, .L76
 990 0002 1B68     		ldr	r3, [r3]
 991 0004 1B0C     		lsrs	r3, r3, #16
 992 0006 0322     		movs	r2, #3
 993 0008 1340     		ands	r3, r2
 994              	.LVL72:
1009:Generated_Source\PSoC4/Timer1.c **** 
1010:Generated_Source\PSoC4/Timer1.c ****         regVal = Timer1_COMP_CAP_BUF_REG;
 995              		.loc 1 1010 0
 996 000a 094A     		ldr	r2, .L76+4
 997 000c 1068     		ldr	r0, [r2]
 998              	.LVL73:
1011:Generated_Source\PSoC4/Timer1.c ****         
1012:Generated_Source\PSoC4/Timer1.c ****         if (((uint32)Timer1__COUNT_DOWN == currentMode) && (0u != regVal))
 999              		.loc 1 1012 0
 1000 000e 012B     		cmp	r3, #1
 1001 0010 03D1     		bne	.L74
 1002              		.loc 1 1012 0 is_stmt 0 discriminator 1
 1003 0012 0028     		cmp	r0, #0
 1004 0014 01D0     		beq	.L74
1013:Generated_Source\PSoC4/Timer1.c ****         {
1014:Generated_Source\PSoC4/Timer1.c ****             regVal--;
 1005              		.loc 1 1014 0 is_stmt 1
 1006 0016 0138     		subs	r0, r0, #1
 1007              	.LVL74:
 1008 0018 05E0     		b	.L75
 1009              	.L74:
1015:Generated_Source\PSoC4/Timer1.c ****         }
1016:Generated_Source\PSoC4/Timer1.c ****         else if (((uint32)Timer1__COUNT_UP == currentMode) && (0xFFFFu != regVal))
 1010              		.loc 1 1016 0
 1011 001a 002B     		cmp	r3, #0
 1012 001c 03D1     		bne	.L75
 1013              		.loc 1 1016 0 is_stmt 0 discriminator 1
 1014 001e 054B     		ldr	r3, .L76+8
 1015              	.LVL75:
 1016 0020 9842     		cmp	r0, r3
 1017 0022 00D0     		beq	.L75
1017:Generated_Source\PSoC4/Timer1.c ****         {
1018:Generated_Source\PSoC4/Timer1.c ****             regVal++;
 1018              		.loc 1 1018 0 is_stmt 1
 1019 0024 0130     		adds	r0, r0, #1
 1020              	.LVL76:
 1021              	.L75:
1019:Generated_Source\PSoC4/Timer1.c ****         }
1020:Generated_Source\PSoC4/Timer1.c ****         else
1021:Generated_Source\PSoC4/Timer1.c ****         {
1022:Generated_Source\PSoC4/Timer1.c ****         }
1023:Generated_Source\PSoC4/Timer1.c **** 
1024:Generated_Source\PSoC4/Timer1.c ****         return (regVal & Timer1_16BIT_MASK);
 1022              		.loc 1 1024 0
 1023 0026 0004     		lsls	r0, r0, #16
 1024              	.LVL77:
 1025 0028 000C     		lsrs	r0, r0, #16
1025:Generated_Source\PSoC4/Timer1.c ****     #else
1026:Generated_Source\PSoC4/Timer1.c ****         return (Timer1_COMP_CAP_BUF_REG & Timer1_16BIT_MASK);
1027:Generated_Source\PSoC4/Timer1.c ****     #endif /* (Timer1_CY_TCPWM_4000) */
ARM GAS  C:\Users\mac_000\AppData\Local\Temp\ccHYHBYg.s 			page 37


1028:Generated_Source\PSoC4/Timer1.c **** }
 1026              		.loc 1 1028 0
 1027              		@ sp needed
 1028 002a 7047     		bx	lr
 1029              	.L77:
 1030              		.align	2
 1031              	.L76:
 1032 002c 00010540 		.word	1074069760
 1033 0030 10010540 		.word	1074069776
 1034 0034 FFFF0000 		.word	65535
 1035              		.cfi_endproc
 1036              	.LFE25:
 1037              		.size	Timer1_ReadCompareBuf, .-Timer1_ReadCompareBuf
 1038              		.section	.text.Timer1_ReadCapture,"ax",%progbits
 1039              		.align	2
 1040              		.global	Timer1_ReadCapture
 1041              		.code	16
 1042              		.thumb_func
 1043              		.type	Timer1_ReadCapture, %function
 1044              	Timer1_ReadCapture:
 1045              	.LFB26:
1029:Generated_Source\PSoC4/Timer1.c **** 
1030:Generated_Source\PSoC4/Timer1.c **** 
1031:Generated_Source\PSoC4/Timer1.c **** /*******************************************************************************
1032:Generated_Source\PSoC4/Timer1.c **** * Function Name: Timer1_ReadCapture
1033:Generated_Source\PSoC4/Timer1.c **** ********************************************************************************
1034:Generated_Source\PSoC4/Timer1.c **** *
1035:Generated_Source\PSoC4/Timer1.c **** * Summary:
1036:Generated_Source\PSoC4/Timer1.c **** *  Reads the captured counter value. This API is applicable only for
1037:Generated_Source\PSoC4/Timer1.c **** *  Timer/Counter with the capture mode and Quadrature Decoder modes.
1038:Generated_Source\PSoC4/Timer1.c **** *
1039:Generated_Source\PSoC4/Timer1.c **** * Parameters:
1040:Generated_Source\PSoC4/Timer1.c **** *  None
1041:Generated_Source\PSoC4/Timer1.c **** *
1042:Generated_Source\PSoC4/Timer1.c **** * Return:
1043:Generated_Source\PSoC4/Timer1.c **** *  Capture value
1044:Generated_Source\PSoC4/Timer1.c **** *
1045:Generated_Source\PSoC4/Timer1.c **** *******************************************************************************/
1046:Generated_Source\PSoC4/Timer1.c **** uint32 Timer1_ReadCapture(void)
1047:Generated_Source\PSoC4/Timer1.c **** {
 1046              		.loc 1 1047 0
 1047              		.cfi_startproc
 1048              		@ args = 0, pretend = 0, frame = 0
 1049              		@ frame_needed = 0, uses_anonymous_args = 0
 1050              		@ link register save eliminated.
1048:Generated_Source\PSoC4/Timer1.c ****     return (Timer1_COMP_CAP_REG & Timer1_16BIT_MASK);
 1051              		.loc 1 1048 0
 1052 0000 024B     		ldr	r3, .L79
 1053 0002 1868     		ldr	r0, [r3]
 1054 0004 0004     		lsls	r0, r0, #16
 1055 0006 000C     		lsrs	r0, r0, #16
1049:Generated_Source\PSoC4/Timer1.c **** }
 1056              		.loc 1 1049 0
 1057              		@ sp needed
 1058 0008 7047     		bx	lr
 1059              	.L80:
 1060 000a C046     		.align	2
ARM GAS  C:\Users\mac_000\AppData\Local\Temp\ccHYHBYg.s 			page 38


 1061              	.L79:
 1062 000c 0C010540 		.word	1074069772
 1063              		.cfi_endproc
 1064              	.LFE26:
 1065              		.size	Timer1_ReadCapture, .-Timer1_ReadCapture
 1066              		.section	.text.Timer1_ReadCaptureBuf,"ax",%progbits
 1067              		.align	2
 1068              		.global	Timer1_ReadCaptureBuf
 1069              		.code	16
 1070              		.thumb_func
 1071              		.type	Timer1_ReadCaptureBuf, %function
 1072              	Timer1_ReadCaptureBuf:
 1073              	.LFB27:
1050:Generated_Source\PSoC4/Timer1.c **** 
1051:Generated_Source\PSoC4/Timer1.c **** 
1052:Generated_Source\PSoC4/Timer1.c **** /*******************************************************************************
1053:Generated_Source\PSoC4/Timer1.c **** * Function Name: Timer1_ReadCaptureBuf
1054:Generated_Source\PSoC4/Timer1.c **** ********************************************************************************
1055:Generated_Source\PSoC4/Timer1.c **** *
1056:Generated_Source\PSoC4/Timer1.c **** * Summary:
1057:Generated_Source\PSoC4/Timer1.c **** *  Reads the capture buffer register. This API is applicable only for
1058:Generated_Source\PSoC4/Timer1.c **** *  Timer/Counter with the capture mode and Quadrature Decoder modes.
1059:Generated_Source\PSoC4/Timer1.c **** *
1060:Generated_Source\PSoC4/Timer1.c **** * Parameters:
1061:Generated_Source\PSoC4/Timer1.c **** *  None
1062:Generated_Source\PSoC4/Timer1.c **** *
1063:Generated_Source\PSoC4/Timer1.c **** * Return:
1064:Generated_Source\PSoC4/Timer1.c **** *  Capture buffer value
1065:Generated_Source\PSoC4/Timer1.c **** *
1066:Generated_Source\PSoC4/Timer1.c **** *******************************************************************************/
1067:Generated_Source\PSoC4/Timer1.c **** uint32 Timer1_ReadCaptureBuf(void)
1068:Generated_Source\PSoC4/Timer1.c **** {
 1074              		.loc 1 1068 0
 1075              		.cfi_startproc
 1076              		@ args = 0, pretend = 0, frame = 0
 1077              		@ frame_needed = 0, uses_anonymous_args = 0
 1078              		@ link register save eliminated.
1069:Generated_Source\PSoC4/Timer1.c ****     return (Timer1_COMP_CAP_BUF_REG & Timer1_16BIT_MASK);
 1079              		.loc 1 1069 0
 1080 0000 024B     		ldr	r3, .L82
 1081 0002 1868     		ldr	r0, [r3]
 1082 0004 0004     		lsls	r0, r0, #16
 1083 0006 000C     		lsrs	r0, r0, #16
1070:Generated_Source\PSoC4/Timer1.c **** }
 1084              		.loc 1 1070 0
 1085              		@ sp needed
 1086 0008 7047     		bx	lr
 1087              	.L83:
 1088 000a C046     		.align	2
 1089              	.L82:
 1090 000c 10010540 		.word	1074069776
 1091              		.cfi_endproc
 1092              	.LFE27:
 1093              		.size	Timer1_ReadCaptureBuf, .-Timer1_ReadCaptureBuf
 1094              		.section	.text.Timer1_SetCaptureMode,"ax",%progbits
 1095              		.align	2
 1096              		.global	Timer1_SetCaptureMode
ARM GAS  C:\Users\mac_000\AppData\Local\Temp\ccHYHBYg.s 			page 39


 1097              		.code	16
 1098              		.thumb_func
 1099              		.type	Timer1_SetCaptureMode, %function
 1100              	Timer1_SetCaptureMode:
 1101              	.LFB28:
1071:Generated_Source\PSoC4/Timer1.c **** 
1072:Generated_Source\PSoC4/Timer1.c **** 
1073:Generated_Source\PSoC4/Timer1.c **** /*******************************************************************************
1074:Generated_Source\PSoC4/Timer1.c **** * Function Name: Timer1_SetCaptureMode
1075:Generated_Source\PSoC4/Timer1.c **** ********************************************************************************
1076:Generated_Source\PSoC4/Timer1.c **** *
1077:Generated_Source\PSoC4/Timer1.c **** * Summary:
1078:Generated_Source\PSoC4/Timer1.c **** *  Sets the capture trigger mode. For PWM mode this is the switch input.
1079:Generated_Source\PSoC4/Timer1.c **** *  This input is not applicable to the Timer/Counter without Capture and
1080:Generated_Source\PSoC4/Timer1.c **** *  Quadrature Decoder modes.
1081:Generated_Source\PSoC4/Timer1.c **** *
1082:Generated_Source\PSoC4/Timer1.c **** * Parameters:
1083:Generated_Source\PSoC4/Timer1.c **** *  triggerMode: Enumerated trigger mode value
1084:Generated_Source\PSoC4/Timer1.c **** *   Values:
1085:Generated_Source\PSoC4/Timer1.c **** *     - Timer1_TRIG_LEVEL     - Level
1086:Generated_Source\PSoC4/Timer1.c **** *     - Timer1_TRIG_RISING    - Rising edge
1087:Generated_Source\PSoC4/Timer1.c **** *     - Timer1_TRIG_FALLING   - Falling edge
1088:Generated_Source\PSoC4/Timer1.c **** *     - Timer1_TRIG_BOTH      - Both rising and falling edge
1089:Generated_Source\PSoC4/Timer1.c **** *
1090:Generated_Source\PSoC4/Timer1.c **** * Return:
1091:Generated_Source\PSoC4/Timer1.c **** *  None
1092:Generated_Source\PSoC4/Timer1.c **** *
1093:Generated_Source\PSoC4/Timer1.c **** *******************************************************************************/
1094:Generated_Source\PSoC4/Timer1.c **** void Timer1_SetCaptureMode(uint32 triggerMode)
1095:Generated_Source\PSoC4/Timer1.c **** {
 1102              		.loc 1 1095 0
 1103              		.cfi_startproc
 1104              		@ args = 0, pretend = 0, frame = 0
 1105              		@ frame_needed = 0, uses_anonymous_args = 0
 1106              	.LVL78:
 1107 0000 10B5     		push	{r4, lr}
 1108              		.cfi_def_cfa_offset 8
 1109              		.cfi_offset 4, -8
 1110              		.cfi_offset 14, -4
 1111 0002 0400     		movs	r4, r0
1096:Generated_Source\PSoC4/Timer1.c ****     uint8 enableInterrupts;
1097:Generated_Source\PSoC4/Timer1.c **** 
1098:Generated_Source\PSoC4/Timer1.c ****     enableInterrupts = CyEnterCriticalSection();
 1112              		.loc 1 1098 0
 1113 0004 FFF7FEFF 		bl	CyEnterCriticalSection
 1114              	.LVL79:
1099:Generated_Source\PSoC4/Timer1.c **** 
1100:Generated_Source\PSoC4/Timer1.c ****     Timer1_TRIG_CONTROL1_REG &= (uint32)~Timer1_CAPTURE_MASK;
 1115              		.loc 1 1100 0
 1116 0008 054B     		ldr	r3, .L85
 1117 000a 1A68     		ldr	r2, [r3]
 1118 000c 0321     		movs	r1, #3
 1119 000e 8A43     		bics	r2, r1
 1120 0010 1A60     		str	r2, [r3]
1101:Generated_Source\PSoC4/Timer1.c ****     Timer1_TRIG_CONTROL1_REG |= triggerMode;
 1121              		.loc 1 1101 0
 1122 0012 1A68     		ldr	r2, [r3]
ARM GAS  C:\Users\mac_000\AppData\Local\Temp\ccHYHBYg.s 			page 40


 1123 0014 1443     		orrs	r4, r2
 1124              	.LVL80:
 1125 0016 1C60     		str	r4, [r3]
1102:Generated_Source\PSoC4/Timer1.c **** 
1103:Generated_Source\PSoC4/Timer1.c ****     CyExitCriticalSection(enableInterrupts);
 1126              		.loc 1 1103 0
 1127 0018 FFF7FEFF 		bl	CyExitCriticalSection
 1128              	.LVL81:
1104:Generated_Source\PSoC4/Timer1.c **** }
 1129              		.loc 1 1104 0
 1130              		@ sp needed
 1131 001c 10BD     		pop	{r4, pc}
 1132              	.L86:
 1133 001e C046     		.align	2
 1134              	.L85:
 1135 0020 24010540 		.word	1074069796
 1136              		.cfi_endproc
 1137              	.LFE28:
 1138              		.size	Timer1_SetCaptureMode, .-Timer1_SetCaptureMode
 1139              		.section	.text.Timer1_SetReloadMode,"ax",%progbits
 1140              		.align	2
 1141              		.global	Timer1_SetReloadMode
 1142              		.code	16
 1143              		.thumb_func
 1144              		.type	Timer1_SetReloadMode, %function
 1145              	Timer1_SetReloadMode:
 1146              	.LFB29:
1105:Generated_Source\PSoC4/Timer1.c **** 
1106:Generated_Source\PSoC4/Timer1.c **** 
1107:Generated_Source\PSoC4/Timer1.c **** /*******************************************************************************
1108:Generated_Source\PSoC4/Timer1.c **** * Function Name: Timer1_SetReloadMode
1109:Generated_Source\PSoC4/Timer1.c **** ********************************************************************************
1110:Generated_Source\PSoC4/Timer1.c **** *
1111:Generated_Source\PSoC4/Timer1.c **** * Summary:
1112:Generated_Source\PSoC4/Timer1.c **** *  Sets the reload trigger mode. For Quadrature Decoder mode this is the index
1113:Generated_Source\PSoC4/Timer1.c **** *  input.
1114:Generated_Source\PSoC4/Timer1.c **** *
1115:Generated_Source\PSoC4/Timer1.c **** * Parameters:
1116:Generated_Source\PSoC4/Timer1.c **** *  triggerMode: Enumerated trigger mode value
1117:Generated_Source\PSoC4/Timer1.c **** *   Values:
1118:Generated_Source\PSoC4/Timer1.c **** *     - Timer1_TRIG_LEVEL     - Level
1119:Generated_Source\PSoC4/Timer1.c **** *     - Timer1_TRIG_RISING    - Rising edge
1120:Generated_Source\PSoC4/Timer1.c **** *     - Timer1_TRIG_FALLING   - Falling edge
1121:Generated_Source\PSoC4/Timer1.c **** *     - Timer1_TRIG_BOTH      - Both rising and falling edge
1122:Generated_Source\PSoC4/Timer1.c **** *
1123:Generated_Source\PSoC4/Timer1.c **** * Return:
1124:Generated_Source\PSoC4/Timer1.c **** *  None
1125:Generated_Source\PSoC4/Timer1.c **** *
1126:Generated_Source\PSoC4/Timer1.c **** *******************************************************************************/
1127:Generated_Source\PSoC4/Timer1.c **** void Timer1_SetReloadMode(uint32 triggerMode)
1128:Generated_Source\PSoC4/Timer1.c **** {
 1147              		.loc 1 1128 0
 1148              		.cfi_startproc
 1149              		@ args = 0, pretend = 0, frame = 0
 1150              		@ frame_needed = 0, uses_anonymous_args = 0
 1151              	.LVL82:
 1152 0000 10B5     		push	{r4, lr}
ARM GAS  C:\Users\mac_000\AppData\Local\Temp\ccHYHBYg.s 			page 41


 1153              		.cfi_def_cfa_offset 8
 1154              		.cfi_offset 4, -8
 1155              		.cfi_offset 14, -4
 1156 0002 0400     		movs	r4, r0
1129:Generated_Source\PSoC4/Timer1.c ****     uint8 enableInterrupts;
1130:Generated_Source\PSoC4/Timer1.c **** 
1131:Generated_Source\PSoC4/Timer1.c ****     enableInterrupts = CyEnterCriticalSection();
 1157              		.loc 1 1131 0
 1158 0004 FFF7FEFF 		bl	CyEnterCriticalSection
 1159              	.LVL83:
1132:Generated_Source\PSoC4/Timer1.c **** 
1133:Generated_Source\PSoC4/Timer1.c ****     Timer1_TRIG_CONTROL1_REG &= (uint32)~Timer1_RELOAD_MASK;
 1160              		.loc 1 1133 0
 1161 0008 054B     		ldr	r3, .L88
 1162 000a 1A68     		ldr	r2, [r3]
 1163 000c 3021     		movs	r1, #48
 1164 000e 8A43     		bics	r2, r1
 1165 0010 1A60     		str	r2, [r3]
1134:Generated_Source\PSoC4/Timer1.c ****     Timer1_TRIG_CONTROL1_REG |= ((uint32)(triggerMode << Timer1_RELOAD_SHIFT));
 1166              		.loc 1 1134 0
 1167 0012 1A68     		ldr	r2, [r3]
 1168 0014 2401     		lsls	r4, r4, #4
 1169              	.LVL84:
 1170 0016 1443     		orrs	r4, r2
 1171 0018 1C60     		str	r4, [r3]
1135:Generated_Source\PSoC4/Timer1.c **** 
1136:Generated_Source\PSoC4/Timer1.c ****     CyExitCriticalSection(enableInterrupts);
 1172              		.loc 1 1136 0
 1173 001a FFF7FEFF 		bl	CyExitCriticalSection
 1174              	.LVL85:
1137:Generated_Source\PSoC4/Timer1.c **** }
 1175              		.loc 1 1137 0
 1176              		@ sp needed
 1177 001e 10BD     		pop	{r4, pc}
 1178              	.L89:
 1179              		.align	2
 1180              	.L88:
 1181 0020 24010540 		.word	1074069796
 1182              		.cfi_endproc
 1183              	.LFE29:
 1184              		.size	Timer1_SetReloadMode, .-Timer1_SetReloadMode
 1185              		.section	.text.Timer1_SetStartMode,"ax",%progbits
 1186              		.align	2
 1187              		.global	Timer1_SetStartMode
 1188              		.code	16
 1189              		.thumb_func
 1190              		.type	Timer1_SetStartMode, %function
 1191              	Timer1_SetStartMode:
 1192              	.LFB30:
1138:Generated_Source\PSoC4/Timer1.c **** 
1139:Generated_Source\PSoC4/Timer1.c **** 
1140:Generated_Source\PSoC4/Timer1.c **** /*******************************************************************************
1141:Generated_Source\PSoC4/Timer1.c **** * Function Name: Timer1_SetStartMode
1142:Generated_Source\PSoC4/Timer1.c **** ********************************************************************************
1143:Generated_Source\PSoC4/Timer1.c **** *
1144:Generated_Source\PSoC4/Timer1.c **** * Summary:
1145:Generated_Source\PSoC4/Timer1.c **** *  Sets the start trigger mode. For Quadrature Decoder mode this is the
ARM GAS  C:\Users\mac_000\AppData\Local\Temp\ccHYHBYg.s 			page 42


1146:Generated_Source\PSoC4/Timer1.c **** *  phiB input.
1147:Generated_Source\PSoC4/Timer1.c **** *
1148:Generated_Source\PSoC4/Timer1.c **** * Parameters:
1149:Generated_Source\PSoC4/Timer1.c **** *  triggerMode: Enumerated trigger mode value
1150:Generated_Source\PSoC4/Timer1.c **** *   Values:
1151:Generated_Source\PSoC4/Timer1.c **** *     - Timer1_TRIG_LEVEL     - Level
1152:Generated_Source\PSoC4/Timer1.c **** *     - Timer1_TRIG_RISING    - Rising edge
1153:Generated_Source\PSoC4/Timer1.c **** *     - Timer1_TRIG_FALLING   - Falling edge
1154:Generated_Source\PSoC4/Timer1.c **** *     - Timer1_TRIG_BOTH      - Both rising and falling edge
1155:Generated_Source\PSoC4/Timer1.c **** *
1156:Generated_Source\PSoC4/Timer1.c **** * Return:
1157:Generated_Source\PSoC4/Timer1.c **** *  None
1158:Generated_Source\PSoC4/Timer1.c **** *
1159:Generated_Source\PSoC4/Timer1.c **** *******************************************************************************/
1160:Generated_Source\PSoC4/Timer1.c **** void Timer1_SetStartMode(uint32 triggerMode)
1161:Generated_Source\PSoC4/Timer1.c **** {
 1193              		.loc 1 1161 0
 1194              		.cfi_startproc
 1195              		@ args = 0, pretend = 0, frame = 0
 1196              		@ frame_needed = 0, uses_anonymous_args = 0
 1197              	.LVL86:
 1198 0000 10B5     		push	{r4, lr}
 1199              		.cfi_def_cfa_offset 8
 1200              		.cfi_offset 4, -8
 1201              		.cfi_offset 14, -4
 1202 0002 0400     		movs	r4, r0
1162:Generated_Source\PSoC4/Timer1.c ****     uint8 enableInterrupts;
1163:Generated_Source\PSoC4/Timer1.c **** 
1164:Generated_Source\PSoC4/Timer1.c ****     enableInterrupts = CyEnterCriticalSection();
 1203              		.loc 1 1164 0
 1204 0004 FFF7FEFF 		bl	CyEnterCriticalSection
 1205              	.LVL87:
1165:Generated_Source\PSoC4/Timer1.c **** 
1166:Generated_Source\PSoC4/Timer1.c ****     Timer1_TRIG_CONTROL1_REG &= (uint32)~Timer1_START_MASK;
 1206              		.loc 1 1166 0
 1207 0008 054B     		ldr	r3, .L91
 1208 000a 1968     		ldr	r1, [r3]
 1209 000c 054A     		ldr	r2, .L91+4
 1210 000e 0A40     		ands	r2, r1
 1211 0010 1A60     		str	r2, [r3]
1167:Generated_Source\PSoC4/Timer1.c ****     Timer1_TRIG_CONTROL1_REG |= ((uint32)(triggerMode << Timer1_START_SHIFT));
 1212              		.loc 1 1167 0
 1213 0012 1A68     		ldr	r2, [r3]
 1214 0014 2402     		lsls	r4, r4, #8
 1215              	.LVL88:
 1216 0016 1443     		orrs	r4, r2
 1217 0018 1C60     		str	r4, [r3]
1168:Generated_Source\PSoC4/Timer1.c **** 
1169:Generated_Source\PSoC4/Timer1.c ****     CyExitCriticalSection(enableInterrupts);
 1218              		.loc 1 1169 0
 1219 001a FFF7FEFF 		bl	CyExitCriticalSection
 1220              	.LVL89:
1170:Generated_Source\PSoC4/Timer1.c **** }
 1221              		.loc 1 1170 0
 1222              		@ sp needed
 1223 001e 10BD     		pop	{r4, pc}
 1224              	.L92:
ARM GAS  C:\Users\mac_000\AppData\Local\Temp\ccHYHBYg.s 			page 43


 1225              		.align	2
 1226              	.L91:
 1227 0020 24010540 		.word	1074069796
 1228 0024 FFFCFFFF 		.word	-769
 1229              		.cfi_endproc
 1230              	.LFE30:
 1231              		.size	Timer1_SetStartMode, .-Timer1_SetStartMode
 1232              		.section	.text.Timer1_SetStopMode,"ax",%progbits
 1233              		.align	2
 1234              		.global	Timer1_SetStopMode
 1235              		.code	16
 1236              		.thumb_func
 1237              		.type	Timer1_SetStopMode, %function
 1238              	Timer1_SetStopMode:
 1239              	.LFB31:
1171:Generated_Source\PSoC4/Timer1.c **** 
1172:Generated_Source\PSoC4/Timer1.c **** 
1173:Generated_Source\PSoC4/Timer1.c **** /*******************************************************************************
1174:Generated_Source\PSoC4/Timer1.c **** * Function Name: Timer1_SetStopMode
1175:Generated_Source\PSoC4/Timer1.c **** ********************************************************************************
1176:Generated_Source\PSoC4/Timer1.c **** *
1177:Generated_Source\PSoC4/Timer1.c **** * Summary:
1178:Generated_Source\PSoC4/Timer1.c **** *  Sets the stop trigger mode. For PWM mode this is the kill input.
1179:Generated_Source\PSoC4/Timer1.c **** *
1180:Generated_Source\PSoC4/Timer1.c **** * Parameters:
1181:Generated_Source\PSoC4/Timer1.c **** *  triggerMode: Enumerated trigger mode value
1182:Generated_Source\PSoC4/Timer1.c **** *   Values:
1183:Generated_Source\PSoC4/Timer1.c **** *     - Timer1_TRIG_LEVEL     - Level
1184:Generated_Source\PSoC4/Timer1.c **** *     - Timer1_TRIG_RISING    - Rising edge
1185:Generated_Source\PSoC4/Timer1.c **** *     - Timer1_TRIG_FALLING   - Falling edge
1186:Generated_Source\PSoC4/Timer1.c **** *     - Timer1_TRIG_BOTH      - Both rising and falling edge
1187:Generated_Source\PSoC4/Timer1.c **** *
1188:Generated_Source\PSoC4/Timer1.c **** * Return:
1189:Generated_Source\PSoC4/Timer1.c **** *  None
1190:Generated_Source\PSoC4/Timer1.c **** *
1191:Generated_Source\PSoC4/Timer1.c **** *******************************************************************************/
1192:Generated_Source\PSoC4/Timer1.c **** void Timer1_SetStopMode(uint32 triggerMode)
1193:Generated_Source\PSoC4/Timer1.c **** {
 1240              		.loc 1 1193 0
 1241              		.cfi_startproc
 1242              		@ args = 0, pretend = 0, frame = 0
 1243              		@ frame_needed = 0, uses_anonymous_args = 0
 1244              	.LVL90:
 1245 0000 10B5     		push	{r4, lr}
 1246              		.cfi_def_cfa_offset 8
 1247              		.cfi_offset 4, -8
 1248              		.cfi_offset 14, -4
 1249 0002 0400     		movs	r4, r0
1194:Generated_Source\PSoC4/Timer1.c ****     uint8 enableInterrupts;
1195:Generated_Source\PSoC4/Timer1.c **** 
1196:Generated_Source\PSoC4/Timer1.c ****     enableInterrupts = CyEnterCriticalSection();
 1250              		.loc 1 1196 0
 1251 0004 FFF7FEFF 		bl	CyEnterCriticalSection
 1252              	.LVL91:
1197:Generated_Source\PSoC4/Timer1.c **** 
1198:Generated_Source\PSoC4/Timer1.c ****     Timer1_TRIG_CONTROL1_REG &= (uint32)~Timer1_STOP_MASK;
 1253              		.loc 1 1198 0
ARM GAS  C:\Users\mac_000\AppData\Local\Temp\ccHYHBYg.s 			page 44


 1254 0008 054B     		ldr	r3, .L94
 1255 000a 1A68     		ldr	r2, [r3]
 1256 000c C021     		movs	r1, #192
 1257 000e 8A43     		bics	r2, r1
 1258 0010 1A60     		str	r2, [r3]
1199:Generated_Source\PSoC4/Timer1.c ****     Timer1_TRIG_CONTROL1_REG |= ((uint32)(triggerMode << Timer1_STOP_SHIFT));
 1259              		.loc 1 1199 0
 1260 0012 1A68     		ldr	r2, [r3]
 1261 0014 A401     		lsls	r4, r4, #6
 1262              	.LVL92:
 1263 0016 1443     		orrs	r4, r2
 1264 0018 1C60     		str	r4, [r3]
1200:Generated_Source\PSoC4/Timer1.c **** 
1201:Generated_Source\PSoC4/Timer1.c ****     CyExitCriticalSection(enableInterrupts);
 1265              		.loc 1 1201 0
 1266 001a FFF7FEFF 		bl	CyExitCriticalSection
 1267              	.LVL93:
1202:Generated_Source\PSoC4/Timer1.c **** }
 1268              		.loc 1 1202 0
 1269              		@ sp needed
 1270 001e 10BD     		pop	{r4, pc}
 1271              	.L95:
 1272              		.align	2
 1273              	.L94:
 1274 0020 24010540 		.word	1074069796
 1275              		.cfi_endproc
 1276              	.LFE31:
 1277              		.size	Timer1_SetStopMode, .-Timer1_SetStopMode
 1278              		.section	.text.Timer1_SetCountMode,"ax",%progbits
 1279              		.align	2
 1280              		.global	Timer1_SetCountMode
 1281              		.code	16
 1282              		.thumb_func
 1283              		.type	Timer1_SetCountMode, %function
 1284              	Timer1_SetCountMode:
 1285              	.LFB32:
1203:Generated_Source\PSoC4/Timer1.c **** 
1204:Generated_Source\PSoC4/Timer1.c **** 
1205:Generated_Source\PSoC4/Timer1.c **** /*******************************************************************************
1206:Generated_Source\PSoC4/Timer1.c **** * Function Name: Timer1_SetCountMode
1207:Generated_Source\PSoC4/Timer1.c **** ********************************************************************************
1208:Generated_Source\PSoC4/Timer1.c **** *
1209:Generated_Source\PSoC4/Timer1.c **** * Summary:
1210:Generated_Source\PSoC4/Timer1.c **** *  Sets the count trigger mode. For Quadrature Decoder mode this is the phiA
1211:Generated_Source\PSoC4/Timer1.c **** *  input.
1212:Generated_Source\PSoC4/Timer1.c **** *
1213:Generated_Source\PSoC4/Timer1.c **** * Parameters:
1214:Generated_Source\PSoC4/Timer1.c **** *  triggerMode: Enumerated trigger mode value
1215:Generated_Source\PSoC4/Timer1.c **** *   Values:
1216:Generated_Source\PSoC4/Timer1.c **** *     - Timer1_TRIG_LEVEL     - Level
1217:Generated_Source\PSoC4/Timer1.c **** *     - Timer1_TRIG_RISING    - Rising edge
1218:Generated_Source\PSoC4/Timer1.c **** *     - Timer1_TRIG_FALLING   - Falling edge
1219:Generated_Source\PSoC4/Timer1.c **** *     - Timer1_TRIG_BOTH      - Both rising and falling edge
1220:Generated_Source\PSoC4/Timer1.c **** *
1221:Generated_Source\PSoC4/Timer1.c **** * Return:
1222:Generated_Source\PSoC4/Timer1.c **** *  None
1223:Generated_Source\PSoC4/Timer1.c **** *
ARM GAS  C:\Users\mac_000\AppData\Local\Temp\ccHYHBYg.s 			page 45


1224:Generated_Source\PSoC4/Timer1.c **** *******************************************************************************/
1225:Generated_Source\PSoC4/Timer1.c **** void Timer1_SetCountMode(uint32 triggerMode)
1226:Generated_Source\PSoC4/Timer1.c **** {
 1286              		.loc 1 1226 0
 1287              		.cfi_startproc
 1288              		@ args = 0, pretend = 0, frame = 0
 1289              		@ frame_needed = 0, uses_anonymous_args = 0
 1290              	.LVL94:
 1291 0000 10B5     		push	{r4, lr}
 1292              		.cfi_def_cfa_offset 8
 1293              		.cfi_offset 4, -8
 1294              		.cfi_offset 14, -4
 1295 0002 0400     		movs	r4, r0
1227:Generated_Source\PSoC4/Timer1.c ****     uint8 enableInterrupts;
1228:Generated_Source\PSoC4/Timer1.c **** 
1229:Generated_Source\PSoC4/Timer1.c ****     enableInterrupts = CyEnterCriticalSection();
 1296              		.loc 1 1229 0
 1297 0004 FFF7FEFF 		bl	CyEnterCriticalSection
 1298              	.LVL95:
1230:Generated_Source\PSoC4/Timer1.c **** 
1231:Generated_Source\PSoC4/Timer1.c ****     Timer1_TRIG_CONTROL1_REG &= (uint32)~Timer1_COUNT_MASK;
 1299              		.loc 1 1231 0
 1300 0008 054B     		ldr	r3, .L97
 1301 000a 1A68     		ldr	r2, [r3]
 1302 000c 0C21     		movs	r1, #12
 1303 000e 8A43     		bics	r2, r1
 1304 0010 1A60     		str	r2, [r3]
1232:Generated_Source\PSoC4/Timer1.c ****     Timer1_TRIG_CONTROL1_REG |= ((uint32)(triggerMode << Timer1_COUNT_SHIFT));
 1305              		.loc 1 1232 0
 1306 0012 1A68     		ldr	r2, [r3]
 1307 0014 A400     		lsls	r4, r4, #2
 1308              	.LVL96:
 1309 0016 1443     		orrs	r4, r2
 1310 0018 1C60     		str	r4, [r3]
1233:Generated_Source\PSoC4/Timer1.c **** 
1234:Generated_Source\PSoC4/Timer1.c ****     CyExitCriticalSection(enableInterrupts);
 1311              		.loc 1 1234 0
 1312 001a FFF7FEFF 		bl	CyExitCriticalSection
 1313              	.LVL97:
1235:Generated_Source\PSoC4/Timer1.c **** }
 1314              		.loc 1 1235 0
 1315              		@ sp needed
 1316 001e 10BD     		pop	{r4, pc}
 1317              	.L98:
 1318              		.align	2
 1319              	.L97:
 1320 0020 24010540 		.word	1074069796
 1321              		.cfi_endproc
 1322              	.LFE32:
 1323              		.size	Timer1_SetCountMode, .-Timer1_SetCountMode
 1324              		.section	.text.Timer1_TriggerCommand,"ax",%progbits
 1325              		.align	2
 1326              		.global	Timer1_TriggerCommand
 1327              		.code	16
 1328              		.thumb_func
 1329              		.type	Timer1_TriggerCommand, %function
 1330              	Timer1_TriggerCommand:
ARM GAS  C:\Users\mac_000\AppData\Local\Temp\ccHYHBYg.s 			page 46


 1331              	.LFB33:
1236:Generated_Source\PSoC4/Timer1.c **** 
1237:Generated_Source\PSoC4/Timer1.c **** 
1238:Generated_Source\PSoC4/Timer1.c **** /*******************************************************************************
1239:Generated_Source\PSoC4/Timer1.c **** * Function Name: Timer1_TriggerCommand
1240:Generated_Source\PSoC4/Timer1.c **** ********************************************************************************
1241:Generated_Source\PSoC4/Timer1.c **** *
1242:Generated_Source\PSoC4/Timer1.c **** * Summary:
1243:Generated_Source\PSoC4/Timer1.c **** *  Triggers the designated command to occur on the designated TCPWM instances.
1244:Generated_Source\PSoC4/Timer1.c **** *  The mask can be used to apply this command simultaneously to more than one
1245:Generated_Source\PSoC4/Timer1.c **** *  instance.  This allows multiple TCPWM instances to be synchronized.
1246:Generated_Source\PSoC4/Timer1.c **** *
1247:Generated_Source\PSoC4/Timer1.c **** * Parameters:
1248:Generated_Source\PSoC4/Timer1.c **** *  mask: A combination of mask bits for each instance of the TCPWM that the
1249:Generated_Source\PSoC4/Timer1.c **** *        command should apply to.  This function from one instance can be used
1250:Generated_Source\PSoC4/Timer1.c **** *        to apply the command to any of the instances in the design.
1251:Generated_Source\PSoC4/Timer1.c **** *        The mask value for a specific instance is available with the MASK
1252:Generated_Source\PSoC4/Timer1.c **** *        define.
1253:Generated_Source\PSoC4/Timer1.c **** *  command: Enumerated command values. Capture command only applicable for
1254:Generated_Source\PSoC4/Timer1.c **** *           Timer/Counter with Capture and PWM modes.
1255:Generated_Source\PSoC4/Timer1.c **** *   Values:
1256:Generated_Source\PSoC4/Timer1.c **** *     - Timer1_CMD_CAPTURE    - Trigger Capture/Switch command
1257:Generated_Source\PSoC4/Timer1.c **** *     - Timer1_CMD_RELOAD     - Trigger Reload/Index command
1258:Generated_Source\PSoC4/Timer1.c **** *     - Timer1_CMD_STOP       - Trigger Stop/Kill command
1259:Generated_Source\PSoC4/Timer1.c **** *     - Timer1_CMD_START      - Trigger Start/phiB command
1260:Generated_Source\PSoC4/Timer1.c **** *
1261:Generated_Source\PSoC4/Timer1.c **** * Return:
1262:Generated_Source\PSoC4/Timer1.c **** *  None
1263:Generated_Source\PSoC4/Timer1.c **** *
1264:Generated_Source\PSoC4/Timer1.c **** *******************************************************************************/
1265:Generated_Source\PSoC4/Timer1.c **** void Timer1_TriggerCommand(uint32 mask, uint32 command)
1266:Generated_Source\PSoC4/Timer1.c **** {
 1332              		.loc 1 1266 0
 1333              		.cfi_startproc
 1334              		@ args = 0, pretend = 0, frame = 0
 1335              		@ frame_needed = 0, uses_anonymous_args = 0
 1336              	.LVL98:
 1337 0000 70B5     		push	{r4, r5, r6, lr}
 1338              		.cfi_def_cfa_offset 16
 1339              		.cfi_offset 4, -16
 1340              		.cfi_offset 5, -12
 1341              		.cfi_offset 6, -8
 1342              		.cfi_offset 14, -4
 1343 0002 0400     		movs	r4, r0
 1344 0004 0D00     		movs	r5, r1
1267:Generated_Source\PSoC4/Timer1.c ****     uint8 enableInterrupts;
1268:Generated_Source\PSoC4/Timer1.c **** 
1269:Generated_Source\PSoC4/Timer1.c ****     enableInterrupts = CyEnterCriticalSection();
 1345              		.loc 1 1269 0
 1346 0006 FFF7FEFF 		bl	CyEnterCriticalSection
 1347              	.LVL99:
1270:Generated_Source\PSoC4/Timer1.c **** 
1271:Generated_Source\PSoC4/Timer1.c ****     Timer1_COMMAND_REG = ((uint32)(mask << command));
 1348              		.loc 1 1271 0
 1349 000a AC40     		lsls	r4, r4, r5
 1350              	.LVL100:
 1351 000c 024B     		ldr	r3, .L100
ARM GAS  C:\Users\mac_000\AppData\Local\Temp\ccHYHBYg.s 			page 47


 1352 000e 1C60     		str	r4, [r3]
1272:Generated_Source\PSoC4/Timer1.c **** 
1273:Generated_Source\PSoC4/Timer1.c ****     CyExitCriticalSection(enableInterrupts);
 1353              		.loc 1 1273 0
 1354 0010 FFF7FEFF 		bl	CyExitCriticalSection
 1355              	.LVL101:
1274:Generated_Source\PSoC4/Timer1.c **** }
 1356              		.loc 1 1274 0
 1357              		@ sp needed
 1358              	.LVL102:
 1359 0014 70BD     		pop	{r4, r5, r6, pc}
 1360              	.L101:
 1361 0016 C046     		.align	2
 1362              	.L100:
 1363 0018 08000540 		.word	1074069512
 1364              		.cfi_endproc
 1365              	.LFE33:
 1366              		.size	Timer1_TriggerCommand, .-Timer1_TriggerCommand
 1367              		.section	.text.Timer1_Enable,"ax",%progbits
 1368              		.align	2
 1369              		.global	Timer1_Enable
 1370              		.code	16
 1371              		.thumb_func
 1372              		.type	Timer1_Enable, %function
 1373              	Timer1_Enable:
 1374              	.LFB1:
 178:Generated_Source\PSoC4/Timer1.c ****     uint8 enableInterrupts;
 1375              		.loc 1 178 0
 1376              		.cfi_startproc
 1377              		@ args = 0, pretend = 0, frame = 0
 1378              		@ frame_needed = 0, uses_anonymous_args = 0
 1379 0000 10B5     		push	{r4, lr}
 1380              		.cfi_def_cfa_offset 8
 1381              		.cfi_offset 4, -8
 1382              		.cfi_offset 14, -4
 181:Generated_Source\PSoC4/Timer1.c ****     Timer1_BLOCK_CONTROL_REG |= Timer1_MASK;
 1383              		.loc 1 181 0
 1384 0002 FFF7FEFF 		bl	CyEnterCriticalSection
 1385              	.LVL103:
 182:Generated_Source\PSoC4/Timer1.c ****     CyExitCriticalSection(enableInterrupts);
 1386              		.loc 1 182 0
 1387 0006 064A     		ldr	r2, .L103
 1388 0008 1168     		ldr	r1, [r2]
 1389 000a 0123     		movs	r3, #1
 1390 000c 0B43     		orrs	r3, r1
 1391 000e 1360     		str	r3, [r2]
 183:Generated_Source\PSoC4/Timer1.c **** 
 1392              		.loc 1 183 0
 1393 0010 FFF7FEFF 		bl	CyExitCriticalSection
 1394              	.LVL104:
 194:Generated_Source\PSoC4/Timer1.c ****         #endif /* (0u == Timer1_TC_START_SIGNAL_PRESENT) */
 1395              		.loc 1 194 0
 1396 0014 1821     		movs	r1, #24
 1397 0016 0120     		movs	r0, #1
 1398 0018 FFF7FEFF 		bl	Timer1_TriggerCommand
 1399              	.LVL105:
 203:Generated_Source\PSoC4/Timer1.c **** 
ARM GAS  C:\Users\mac_000\AppData\Local\Temp\ccHYHBYg.s 			page 48


 1400              		.loc 1 203 0
 1401              		@ sp needed
 1402 001c 10BD     		pop	{r4, pc}
 1403              	.L104:
 1404 001e C046     		.align	2
 1405              	.L103:
 1406 0020 00000540 		.word	1074069504
 1407              		.cfi_endproc
 1408              	.LFE1:
 1409              		.size	Timer1_Enable, .-Timer1_Enable
 1410              		.section	.text.Timer1_ReadStatus,"ax",%progbits
 1411              		.align	2
 1412              		.global	Timer1_ReadStatus
 1413              		.code	16
 1414              		.thumb_func
 1415              		.type	Timer1_ReadStatus, %function
 1416              	Timer1_ReadStatus:
 1417              	.LFB34:
1275:Generated_Source\PSoC4/Timer1.c **** 
1276:Generated_Source\PSoC4/Timer1.c **** 
1277:Generated_Source\PSoC4/Timer1.c **** /*******************************************************************************
1278:Generated_Source\PSoC4/Timer1.c **** * Function Name: Timer1_ReadStatus
1279:Generated_Source\PSoC4/Timer1.c **** ********************************************************************************
1280:Generated_Source\PSoC4/Timer1.c **** *
1281:Generated_Source\PSoC4/Timer1.c **** * Summary:
1282:Generated_Source\PSoC4/Timer1.c **** *  Reads the status of the Timer1.
1283:Generated_Source\PSoC4/Timer1.c **** *
1284:Generated_Source\PSoC4/Timer1.c **** * Parameters:
1285:Generated_Source\PSoC4/Timer1.c **** *  None
1286:Generated_Source\PSoC4/Timer1.c **** *
1287:Generated_Source\PSoC4/Timer1.c **** * Return:
1288:Generated_Source\PSoC4/Timer1.c **** *  Status
1289:Generated_Source\PSoC4/Timer1.c **** *   Values:
1290:Generated_Source\PSoC4/Timer1.c **** *     - Timer1_STATUS_DOWN    - Set if counting down
1291:Generated_Source\PSoC4/Timer1.c **** *     - Timer1_STATUS_RUNNING - Set if counter is running
1292:Generated_Source\PSoC4/Timer1.c **** *
1293:Generated_Source\PSoC4/Timer1.c **** *******************************************************************************/
1294:Generated_Source\PSoC4/Timer1.c **** uint32 Timer1_ReadStatus(void)
1295:Generated_Source\PSoC4/Timer1.c **** {
 1418              		.loc 1 1295 0
 1419              		.cfi_startproc
 1420              		@ args = 0, pretend = 0, frame = 0
 1421              		@ frame_needed = 0, uses_anonymous_args = 0
 1422              		@ link register save eliminated.
1296:Generated_Source\PSoC4/Timer1.c ****     return ((Timer1_STATUS_REG >> Timer1_RUNNING_STATUS_SHIFT) |
 1423              		.loc 1 1296 0
 1424 0000 034B     		ldr	r3, .L106
 1425 0002 1868     		ldr	r0, [r3]
 1426 0004 820F     		lsrs	r2, r0, #30
1297:Generated_Source\PSoC4/Timer1.c ****             (Timer1_STATUS_REG & Timer1_STATUS_DOWN));
 1427              		.loc 1 1297 0
 1428 0006 1B68     		ldr	r3, [r3]
 1429 0008 0120     		movs	r0, #1
 1430 000a 1840     		ands	r0, r3
1296:Generated_Source\PSoC4/Timer1.c ****     return ((Timer1_STATUS_REG >> Timer1_RUNNING_STATUS_SHIFT) |
 1431              		.loc 1 1296 0
 1432 000c 1043     		orrs	r0, r2
ARM GAS  C:\Users\mac_000\AppData\Local\Temp\ccHYHBYg.s 			page 49


1298:Generated_Source\PSoC4/Timer1.c **** }
 1433              		.loc 1 1298 0
 1434              		@ sp needed
 1435 000e 7047     		bx	lr
 1436              	.L107:
 1437              		.align	2
 1438              	.L106:
 1439 0010 04010540 		.word	1074069764
 1440              		.cfi_endproc
 1441              	.LFE34:
 1442              		.size	Timer1_ReadStatus, .-Timer1_ReadStatus
 1443              		.section	.text.Timer1_SetInterruptMode,"ax",%progbits
 1444              		.align	2
 1445              		.global	Timer1_SetInterruptMode
 1446              		.code	16
 1447              		.thumb_func
 1448              		.type	Timer1_SetInterruptMode, %function
 1449              	Timer1_SetInterruptMode:
 1450              	.LFB35:
1299:Generated_Source\PSoC4/Timer1.c **** 
1300:Generated_Source\PSoC4/Timer1.c **** 
1301:Generated_Source\PSoC4/Timer1.c **** /*******************************************************************************
1302:Generated_Source\PSoC4/Timer1.c **** * Function Name: Timer1_SetInterruptMode
1303:Generated_Source\PSoC4/Timer1.c **** ********************************************************************************
1304:Generated_Source\PSoC4/Timer1.c **** *
1305:Generated_Source\PSoC4/Timer1.c **** * Summary:
1306:Generated_Source\PSoC4/Timer1.c **** *  Sets the interrupt mask to control which interrupt
1307:Generated_Source\PSoC4/Timer1.c **** *  requests generate the interrupt signal.
1308:Generated_Source\PSoC4/Timer1.c **** *
1309:Generated_Source\PSoC4/Timer1.c **** * Parameters:
1310:Generated_Source\PSoC4/Timer1.c **** *   interruptMask: Mask of bits to be enabled
1311:Generated_Source\PSoC4/Timer1.c **** *   Values:
1312:Generated_Source\PSoC4/Timer1.c **** *     - Timer1_INTR_MASK_TC       - Terminal count mask
1313:Generated_Source\PSoC4/Timer1.c **** *     - Timer1_INTR_MASK_CC_MATCH - Compare count / capture mask
1314:Generated_Source\PSoC4/Timer1.c **** *
1315:Generated_Source\PSoC4/Timer1.c **** * Return:
1316:Generated_Source\PSoC4/Timer1.c **** *  None
1317:Generated_Source\PSoC4/Timer1.c **** *
1318:Generated_Source\PSoC4/Timer1.c **** *******************************************************************************/
1319:Generated_Source\PSoC4/Timer1.c **** void Timer1_SetInterruptMode(uint32 interruptMask)
1320:Generated_Source\PSoC4/Timer1.c **** {
 1451              		.loc 1 1320 0
 1452              		.cfi_startproc
 1453              		@ args = 0, pretend = 0, frame = 0
 1454              		@ frame_needed = 0, uses_anonymous_args = 0
 1455              		@ link register save eliminated.
 1456              	.LVL106:
1321:Generated_Source\PSoC4/Timer1.c ****     Timer1_INTERRUPT_MASK_REG =  interruptMask;
 1457              		.loc 1 1321 0
 1458 0000 014B     		ldr	r3, .L109
 1459 0002 1860     		str	r0, [r3]
1322:Generated_Source\PSoC4/Timer1.c **** }
 1460              		.loc 1 1322 0
 1461              		@ sp needed
 1462 0004 7047     		bx	lr
 1463              	.L110:
 1464 0006 C046     		.align	2
ARM GAS  C:\Users\mac_000\AppData\Local\Temp\ccHYHBYg.s 			page 50


 1465              	.L109:
 1466 0008 38010540 		.word	1074069816
 1467              		.cfi_endproc
 1468              	.LFE35:
 1469              		.size	Timer1_SetInterruptMode, .-Timer1_SetInterruptMode
 1470              		.section	.text.Timer1_Init,"ax",%progbits
 1471              		.align	2
 1472              		.global	Timer1_Init
 1473              		.code	16
 1474              		.thumb_func
 1475              		.type	Timer1_Init, %function
 1476              	Timer1_Init:
 1477              	.LFB0:
  39:Generated_Source\PSoC4/Timer1.c **** 
 1478              		.loc 1 39 0
 1479              		.cfi_startproc
 1480              		@ args = 0, pretend = 0, frame = 0
 1481              		@ frame_needed = 0, uses_anonymous_args = 0
 1482 0000 10B5     		push	{r4, lr}
 1483              		.cfi_def_cfa_offset 8
 1484              		.cfi_offset 4, -8
 1485              		.cfi_offset 14, -4
  58:Generated_Source\PSoC4/Timer1.c ****         
 1486              		.loc 1 58 0
 1487 0002 084A     		ldr	r2, .L112
 1488 0004 084B     		ldr	r3, .L112+4
 1489 0006 1A60     		str	r2, [r3]
  61:Generated_Source\PSoC4/Timer1.c ****     
 1490              		.loc 1 61 0
 1491 0008 0D22     		movs	r2, #13
 1492 000a 084B     		ldr	r3, .L112+8
 1493 000c 1A60     		str	r2, [r3]
  64:Generated_Source\PSoC4/Timer1.c ****         
 1494              		.loc 1 64 0
 1495 000e 0220     		movs	r0, #2
 1496 0010 FFF7FEFF 		bl	Timer1_SetInterruptMode
 1497              	.LVL107:
  67:Generated_Source\PSoC4/Timer1.c **** 
 1498              		.loc 1 67 0
 1499 0014 064C     		ldr	r4, .L112+12
 1500 0016 2000     		movs	r0, r4
 1501 0018 FFF7FEFF 		bl	Timer1_WritePeriod
 1502              	.LVL108:
  82:Generated_Source\PSoC4/Timer1.c ****         #else
 1503              		.loc 1 82 0
 1504 001c 2000     		movs	r0, r4
 1505 001e FFF7FEFF 		bl	Timer1_WriteCounter
 1506              	.LVL109:
 160:Generated_Source\PSoC4/Timer1.c **** 
 1507              		.loc 1 160 0
 1508              		@ sp needed
 1509 0022 10BD     		pop	{r4, pc}
 1510              	.L113:
 1511              		.align	2
 1512              	.L112:
 1513 0024 00070102 		.word	33621760
 1514 0028 00010540 		.word	1074069760
ARM GAS  C:\Users\mac_000\AppData\Local\Temp\ccHYHBYg.s 			page 51


 1515 002c 24010540 		.word	1074069796
 1516 0030 FFFF0000 		.word	65535
 1517              		.cfi_endproc
 1518              	.LFE0:
 1519              		.size	Timer1_Init, .-Timer1_Init
 1520              		.section	.text.Timer1_Start,"ax",%progbits
 1521              		.align	2
 1522              		.global	Timer1_Start
 1523              		.code	16
 1524              		.thumb_func
 1525              		.type	Timer1_Start, %function
 1526              	Timer1_Start:
 1527              	.LFB2:
 231:Generated_Source\PSoC4/Timer1.c ****     if (0u == Timer1_initVar)
 1528              		.loc 1 231 0
 1529              		.cfi_startproc
 1530              		@ args = 0, pretend = 0, frame = 0
 1531              		@ frame_needed = 0, uses_anonymous_args = 0
 1532 0000 10B5     		push	{r4, lr}
 1533              		.cfi_def_cfa_offset 8
 1534              		.cfi_offset 4, -8
 1535              		.cfi_offset 14, -4
 232:Generated_Source\PSoC4/Timer1.c ****     {
 1536              		.loc 1 232 0
 1537 0002 064B     		ldr	r3, .L116
 1538 0004 1B78     		ldrb	r3, [r3]
 1539 0006 002B     		cmp	r3, #0
 1540 0008 04D1     		bne	.L115
 234:Generated_Source\PSoC4/Timer1.c ****         Timer1_initVar = 1u;
 1541              		.loc 1 234 0
 1542 000a FFF7FEFF 		bl	Timer1_Init
 1543              	.LVL110:
 235:Generated_Source\PSoC4/Timer1.c ****     }
 1544              		.loc 1 235 0
 1545 000e 0122     		movs	r2, #1
 1546 0010 024B     		ldr	r3, .L116
 1547 0012 1A70     		strb	r2, [r3]
 1548              	.L115:
 238:Generated_Source\PSoC4/Timer1.c **** }
 1549              		.loc 1 238 0
 1550 0014 FFF7FEFF 		bl	Timer1_Enable
 1551              	.LVL111:
 239:Generated_Source\PSoC4/Timer1.c **** 
 1552              		.loc 1 239 0
 1553              		@ sp needed
 1554 0018 10BD     		pop	{r4, pc}
 1555              	.L117:
 1556 001a C046     		.align	2
 1557              	.L116:
 1558 001c 00000000 		.word	.LANCHOR0
 1559              		.cfi_endproc
 1560              	.LFE2:
 1561              		.size	Timer1_Start, .-Timer1_Start
 1562              		.section	.text.Timer1_GetInterruptSourceMasked,"ax",%progbits
 1563              		.align	2
 1564              		.global	Timer1_GetInterruptSourceMasked
 1565              		.code	16
ARM GAS  C:\Users\mac_000\AppData\Local\Temp\ccHYHBYg.s 			page 52


 1566              		.thumb_func
 1567              		.type	Timer1_GetInterruptSourceMasked, %function
 1568              	Timer1_GetInterruptSourceMasked:
 1569              	.LFB36:
1323:Generated_Source\PSoC4/Timer1.c **** 
1324:Generated_Source\PSoC4/Timer1.c **** 
1325:Generated_Source\PSoC4/Timer1.c **** /*******************************************************************************
1326:Generated_Source\PSoC4/Timer1.c **** * Function Name: Timer1_GetInterruptSourceMasked
1327:Generated_Source\PSoC4/Timer1.c **** ********************************************************************************
1328:Generated_Source\PSoC4/Timer1.c **** *
1329:Generated_Source\PSoC4/Timer1.c **** * Summary:
1330:Generated_Source\PSoC4/Timer1.c **** *  Gets the interrupt requests masked by the interrupt mask.
1331:Generated_Source\PSoC4/Timer1.c **** *
1332:Generated_Source\PSoC4/Timer1.c **** * Parameters:
1333:Generated_Source\PSoC4/Timer1.c **** *   None
1334:Generated_Source\PSoC4/Timer1.c **** *
1335:Generated_Source\PSoC4/Timer1.c **** * Return:
1336:Generated_Source\PSoC4/Timer1.c **** *  Masked interrupt source
1337:Generated_Source\PSoC4/Timer1.c **** *   Values:
1338:Generated_Source\PSoC4/Timer1.c **** *     - Timer1_INTR_MASK_TC       - Terminal count mask
1339:Generated_Source\PSoC4/Timer1.c **** *     - Timer1_INTR_MASK_CC_MATCH - Compare count / capture mask
1340:Generated_Source\PSoC4/Timer1.c **** *
1341:Generated_Source\PSoC4/Timer1.c **** *******************************************************************************/
1342:Generated_Source\PSoC4/Timer1.c **** uint32 Timer1_GetInterruptSourceMasked(void)
1343:Generated_Source\PSoC4/Timer1.c **** {
 1570              		.loc 1 1343 0
 1571              		.cfi_startproc
 1572              		@ args = 0, pretend = 0, frame = 0
 1573              		@ frame_needed = 0, uses_anonymous_args = 0
 1574              		@ link register save eliminated.
1344:Generated_Source\PSoC4/Timer1.c ****     return (Timer1_INTERRUPT_MASKED_REG);
 1575              		.loc 1 1344 0
 1576 0000 014B     		ldr	r3, .L119
 1577 0002 1868     		ldr	r0, [r3]
1345:Generated_Source\PSoC4/Timer1.c **** }
 1578              		.loc 1 1345 0
 1579              		@ sp needed
 1580 0004 7047     		bx	lr
 1581              	.L120:
 1582 0006 C046     		.align	2
 1583              	.L119:
 1584 0008 3C010540 		.word	1074069820
 1585              		.cfi_endproc
 1586              	.LFE36:
 1587              		.size	Timer1_GetInterruptSourceMasked, .-Timer1_GetInterruptSourceMasked
 1588              		.section	.text.Timer1_GetInterruptSource,"ax",%progbits
 1589              		.align	2
 1590              		.global	Timer1_GetInterruptSource
 1591              		.code	16
 1592              		.thumb_func
 1593              		.type	Timer1_GetInterruptSource, %function
 1594              	Timer1_GetInterruptSource:
 1595              	.LFB37:
1346:Generated_Source\PSoC4/Timer1.c **** 
1347:Generated_Source\PSoC4/Timer1.c **** 
1348:Generated_Source\PSoC4/Timer1.c **** /*******************************************************************************
1349:Generated_Source\PSoC4/Timer1.c **** * Function Name: Timer1_GetInterruptSource
ARM GAS  C:\Users\mac_000\AppData\Local\Temp\ccHYHBYg.s 			page 53


1350:Generated_Source\PSoC4/Timer1.c **** ********************************************************************************
1351:Generated_Source\PSoC4/Timer1.c **** *
1352:Generated_Source\PSoC4/Timer1.c **** * Summary:
1353:Generated_Source\PSoC4/Timer1.c **** *  Gets the interrupt requests (without masking).
1354:Generated_Source\PSoC4/Timer1.c **** *
1355:Generated_Source\PSoC4/Timer1.c **** * Parameters:
1356:Generated_Source\PSoC4/Timer1.c **** *  None
1357:Generated_Source\PSoC4/Timer1.c **** *
1358:Generated_Source\PSoC4/Timer1.c **** * Return:
1359:Generated_Source\PSoC4/Timer1.c **** *  Interrupt request value
1360:Generated_Source\PSoC4/Timer1.c **** *   Values:
1361:Generated_Source\PSoC4/Timer1.c **** *     - Timer1_INTR_MASK_TC       - Terminal count mask
1362:Generated_Source\PSoC4/Timer1.c **** *     - Timer1_INTR_MASK_CC_MATCH - Compare count / capture mask
1363:Generated_Source\PSoC4/Timer1.c **** *
1364:Generated_Source\PSoC4/Timer1.c **** *******************************************************************************/
1365:Generated_Source\PSoC4/Timer1.c **** uint32 Timer1_GetInterruptSource(void)
1366:Generated_Source\PSoC4/Timer1.c **** {
 1596              		.loc 1 1366 0
 1597              		.cfi_startproc
 1598              		@ args = 0, pretend = 0, frame = 0
 1599              		@ frame_needed = 0, uses_anonymous_args = 0
 1600              		@ link register save eliminated.
1367:Generated_Source\PSoC4/Timer1.c ****     return (Timer1_INTERRUPT_REQ_REG);
 1601              		.loc 1 1367 0
 1602 0000 014B     		ldr	r3, .L122
 1603 0002 1868     		ldr	r0, [r3]
1368:Generated_Source\PSoC4/Timer1.c **** }
 1604              		.loc 1 1368 0
 1605              		@ sp needed
 1606 0004 7047     		bx	lr
 1607              	.L123:
 1608 0006 C046     		.align	2
 1609              	.L122:
 1610 0008 30010540 		.word	1074069808
 1611              		.cfi_endproc
 1612              	.LFE37:
 1613              		.size	Timer1_GetInterruptSource, .-Timer1_GetInterruptSource
 1614              		.section	.text.Timer1_ClearInterrupt,"ax",%progbits
 1615              		.align	2
 1616              		.global	Timer1_ClearInterrupt
 1617              		.code	16
 1618              		.thumb_func
 1619              		.type	Timer1_ClearInterrupt, %function
 1620              	Timer1_ClearInterrupt:
 1621              	.LFB38:
1369:Generated_Source\PSoC4/Timer1.c **** 
1370:Generated_Source\PSoC4/Timer1.c **** 
1371:Generated_Source\PSoC4/Timer1.c **** /*******************************************************************************
1372:Generated_Source\PSoC4/Timer1.c **** * Function Name: Timer1_ClearInterrupt
1373:Generated_Source\PSoC4/Timer1.c **** ********************************************************************************
1374:Generated_Source\PSoC4/Timer1.c **** *
1375:Generated_Source\PSoC4/Timer1.c **** * Summary:
1376:Generated_Source\PSoC4/Timer1.c **** *  Clears the interrupt request.
1377:Generated_Source\PSoC4/Timer1.c **** *
1378:Generated_Source\PSoC4/Timer1.c **** * Parameters:
1379:Generated_Source\PSoC4/Timer1.c **** *   interruptMask: Mask of interrupts to clear
1380:Generated_Source\PSoC4/Timer1.c **** *   Values:
ARM GAS  C:\Users\mac_000\AppData\Local\Temp\ccHYHBYg.s 			page 54


1381:Generated_Source\PSoC4/Timer1.c **** *     - Timer1_INTR_MASK_TC       - Terminal count mask
1382:Generated_Source\PSoC4/Timer1.c **** *     - Timer1_INTR_MASK_CC_MATCH - Compare count / capture mask
1383:Generated_Source\PSoC4/Timer1.c **** *
1384:Generated_Source\PSoC4/Timer1.c **** * Return:
1385:Generated_Source\PSoC4/Timer1.c **** *  None
1386:Generated_Source\PSoC4/Timer1.c **** *
1387:Generated_Source\PSoC4/Timer1.c **** *******************************************************************************/
1388:Generated_Source\PSoC4/Timer1.c **** void Timer1_ClearInterrupt(uint32 interruptMask)
1389:Generated_Source\PSoC4/Timer1.c **** {
 1622              		.loc 1 1389 0
 1623              		.cfi_startproc
 1624              		@ args = 0, pretend = 0, frame = 0
 1625              		@ frame_needed = 0, uses_anonymous_args = 0
 1626              		@ link register save eliminated.
 1627              	.LVL112:
1390:Generated_Source\PSoC4/Timer1.c ****     Timer1_INTERRUPT_REQ_REG = interruptMask;
 1628              		.loc 1 1390 0
 1629 0000 014B     		ldr	r3, .L125
 1630 0002 1860     		str	r0, [r3]
1391:Generated_Source\PSoC4/Timer1.c **** }
 1631              		.loc 1 1391 0
 1632              		@ sp needed
 1633 0004 7047     		bx	lr
 1634              	.L126:
 1635 0006 C046     		.align	2
 1636              	.L125:
 1637 0008 30010540 		.word	1074069808
 1638              		.cfi_endproc
 1639              	.LFE38:
 1640              		.size	Timer1_ClearInterrupt, .-Timer1_ClearInterrupt
 1641              		.section	.text.Timer1_SetInterrupt,"ax",%progbits
 1642              		.align	2
 1643              		.global	Timer1_SetInterrupt
 1644              		.code	16
 1645              		.thumb_func
 1646              		.type	Timer1_SetInterrupt, %function
 1647              	Timer1_SetInterrupt:
 1648              	.LFB39:
1392:Generated_Source\PSoC4/Timer1.c **** 
1393:Generated_Source\PSoC4/Timer1.c **** 
1394:Generated_Source\PSoC4/Timer1.c **** /*******************************************************************************
1395:Generated_Source\PSoC4/Timer1.c **** * Function Name: Timer1_SetInterrupt
1396:Generated_Source\PSoC4/Timer1.c **** ********************************************************************************
1397:Generated_Source\PSoC4/Timer1.c **** *
1398:Generated_Source\PSoC4/Timer1.c **** * Summary:
1399:Generated_Source\PSoC4/Timer1.c **** *  Sets a software interrupt request.
1400:Generated_Source\PSoC4/Timer1.c **** *
1401:Generated_Source\PSoC4/Timer1.c **** * Parameters:
1402:Generated_Source\PSoC4/Timer1.c **** *   interruptMask: Mask of interrupts to set
1403:Generated_Source\PSoC4/Timer1.c **** *   Values:
1404:Generated_Source\PSoC4/Timer1.c **** *     - Timer1_INTR_MASK_TC       - Terminal count mask
1405:Generated_Source\PSoC4/Timer1.c **** *     - Timer1_INTR_MASK_CC_MATCH - Compare count / capture mask
1406:Generated_Source\PSoC4/Timer1.c **** *
1407:Generated_Source\PSoC4/Timer1.c **** * Return:
1408:Generated_Source\PSoC4/Timer1.c **** *  None
1409:Generated_Source\PSoC4/Timer1.c **** *
1410:Generated_Source\PSoC4/Timer1.c **** *******************************************************************************/
ARM GAS  C:\Users\mac_000\AppData\Local\Temp\ccHYHBYg.s 			page 55


1411:Generated_Source\PSoC4/Timer1.c **** void Timer1_SetInterrupt(uint32 interruptMask)
1412:Generated_Source\PSoC4/Timer1.c **** {
 1649              		.loc 1 1412 0
 1650              		.cfi_startproc
 1651              		@ args = 0, pretend = 0, frame = 0
 1652              		@ frame_needed = 0, uses_anonymous_args = 0
 1653              		@ link register save eliminated.
 1654              	.LVL113:
1413:Generated_Source\PSoC4/Timer1.c ****     Timer1_INTERRUPT_SET_REG = interruptMask;
 1655              		.loc 1 1413 0
 1656 0000 014B     		ldr	r3, .L128
 1657 0002 1860     		str	r0, [r3]
1414:Generated_Source\PSoC4/Timer1.c **** }
 1658              		.loc 1 1414 0
 1659              		@ sp needed
 1660 0004 7047     		bx	lr
 1661              	.L129:
 1662 0006 C046     		.align	2
 1663              	.L128:
 1664 0008 34010540 		.word	1074069812
 1665              		.cfi_endproc
 1666              	.LFE39:
 1667              		.size	Timer1_SetInterrupt, .-Timer1_SetInterrupt
 1668              		.global	Timer1_initVar
 1669              		.bss
 1670              		.set	.LANCHOR0,. + 0
 1671              		.type	Timer1_initVar, %object
 1672              		.size	Timer1_initVar, 1
 1673              	Timer1_initVar:
 1674 0000 00       		.space	1
 1675              		.text
 1676              	.Letext0:
 1677              		.file 2 "Generated_Source\\PSoC4\\cytypes.h"
 1678              		.file 3 "Generated_Source\\PSoC4\\CyLib.h"