ARM GAS  C:\Users\mac_000\AppData\Local\Temp\ccO0OvQ6.s 			page 1


   1              		.syntax unified
   2              		.cpu cortex-m0
   3              		.fpu softvfp
   4              		.eabi_attribute 20, 1
   5              		.eabi_attribute 21, 1
   6              		.eabi_attribute 23, 3
   7              		.eabi_attribute 24, 1
   8              		.eabi_attribute 25, 1
   9              		.eabi_attribute 26, 1
  10              		.eabi_attribute 30, 1
  11              		.eabi_attribute 34, 0
  12              		.eabi_attribute 18, 4
  13              		.thumb
  14              		.syntax unified
  15              		.file	"cyfitter_cfg.c"
  16              		.text
  17              	.Ltext0:
  18              		.cfi_sections	.debug_frame
  19              		.section	.text.cfg_write_bytes32,"ax",%progbits
  20              		.align	2
  21              		.code	16
  22              		.thumb_func
  23              		.type	cfg_write_bytes32, %function
  24              	cfg_write_bytes32:
  25              	.LFB3:
  26              		.file 1 "Generated_Source\\PSoC4\\cyfitter_cfg.c"
   1:Generated_Source\PSoC4/cyfitter_cfg.c **** 
   2:Generated_Source\PSoC4/cyfitter_cfg.c **** /*******************************************************************************
   3:Generated_Source\PSoC4/cyfitter_cfg.c **** * File Name: cyfitter_cfg.c
   4:Generated_Source\PSoC4/cyfitter_cfg.c **** * 
   5:Generated_Source\PSoC4/cyfitter_cfg.c **** * PSoC Creator  4.3
   6:Generated_Source\PSoC4/cyfitter_cfg.c **** *
   7:Generated_Source\PSoC4/cyfitter_cfg.c **** * Description:
   8:Generated_Source\PSoC4/cyfitter_cfg.c **** * This file contains device initialization code.
   9:Generated_Source\PSoC4/cyfitter_cfg.c **** * Except for the user defined sections in CyClockStartupError(), this file should not be modified.
  10:Generated_Source\PSoC4/cyfitter_cfg.c **** * This file is automatically generated by PSoC Creator.
  11:Generated_Source\PSoC4/cyfitter_cfg.c **** *
  12:Generated_Source\PSoC4/cyfitter_cfg.c **** ********************************************************************************
  13:Generated_Source\PSoC4/cyfitter_cfg.c **** * Copyright (c) 2007-2019 Cypress Semiconductor.  All rights reserved.
  14:Generated_Source\PSoC4/cyfitter_cfg.c **** * You may use this file only in accordance with the license, terms, conditions, 
  15:Generated_Source\PSoC4/cyfitter_cfg.c **** * disclaimers, and limitations in the end user license agreement accompanying 
  16:Generated_Source\PSoC4/cyfitter_cfg.c **** * the software package with which this file was provided.
  17:Generated_Source\PSoC4/cyfitter_cfg.c **** ********************************************************************************/
  18:Generated_Source\PSoC4/cyfitter_cfg.c **** 
  19:Generated_Source\PSoC4/cyfitter_cfg.c **** #include <string.h>
  20:Generated_Source\PSoC4/cyfitter_cfg.c **** #include "cytypes.h"
  21:Generated_Source\PSoC4/cyfitter_cfg.c **** #include "cydevice_trm.h"
  22:Generated_Source\PSoC4/cyfitter_cfg.c **** #include "cyfitter.h"
  23:Generated_Source\PSoC4/cyfitter_cfg.c **** #include "CyLib.h"
  24:Generated_Source\PSoC4/cyfitter_cfg.c **** #include "CyLFClk.h"
  25:Generated_Source\PSoC4/cyfitter_cfg.c **** #include "cyfitter_cfg.h"
  26:Generated_Source\PSoC4/cyfitter_cfg.c **** #include "cyapicallbacks.h"
  27:Generated_Source\PSoC4/cyfitter_cfg.c **** 
  28:Generated_Source\PSoC4/cyfitter_cfg.c **** 
  29:Generated_Source\PSoC4/cyfitter_cfg.c **** #if defined(__GNUC__) || defined(__ARMCC_VERSION)
  30:Generated_Source\PSoC4/cyfitter_cfg.c ****     #define CYPACKED 
  31:Generated_Source\PSoC4/cyfitter_cfg.c ****     #define CYPACKED_ATTR __attribute__ ((packed))
ARM GAS  C:\Users\mac_000\AppData\Local\Temp\ccO0OvQ6.s 			page 2


  32:Generated_Source\PSoC4/cyfitter_cfg.c ****     #define CYALIGNED __attribute__ ((aligned))
  33:Generated_Source\PSoC4/cyfitter_cfg.c ****     #define CY_CFG_UNUSED __attribute__ ((unused))
  34:Generated_Source\PSoC4/cyfitter_cfg.c ****     #ifndef CY_CFG_SECTION
  35:Generated_Source\PSoC4/cyfitter_cfg.c ****         #define CY_CFG_SECTION __attribute__ ((section(".psocinit")))
  36:Generated_Source\PSoC4/cyfitter_cfg.c ****     #endif
  37:Generated_Source\PSoC4/cyfitter_cfg.c ****     
  38:Generated_Source\PSoC4/cyfitter_cfg.c ****     #if defined(__ARMCC_VERSION)
  39:Generated_Source\PSoC4/cyfitter_cfg.c ****         #define CY_CFG_MEMORY_BARRIER() __memory_changed()
  40:Generated_Source\PSoC4/cyfitter_cfg.c ****     #else
  41:Generated_Source\PSoC4/cyfitter_cfg.c ****         #define CY_CFG_MEMORY_BARRIER() __sync_synchronize()
  42:Generated_Source\PSoC4/cyfitter_cfg.c ****     #endif
  43:Generated_Source\PSoC4/cyfitter_cfg.c ****     
  44:Generated_Source\PSoC4/cyfitter_cfg.c **** #elif defined(__ICCARM__)
  45:Generated_Source\PSoC4/cyfitter_cfg.c ****     #include <intrinsics.h>
  46:Generated_Source\PSoC4/cyfitter_cfg.c **** 
  47:Generated_Source\PSoC4/cyfitter_cfg.c ****     #define CYPACKED __packed
  48:Generated_Source\PSoC4/cyfitter_cfg.c ****     #define CYPACKED_ATTR 
  49:Generated_Source\PSoC4/cyfitter_cfg.c ****     #define CYALIGNED _Pragma("data_alignment=4")
  50:Generated_Source\PSoC4/cyfitter_cfg.c ****     #define CY_CFG_UNUSED _Pragma("diag_suppress=Pe177")
  51:Generated_Source\PSoC4/cyfitter_cfg.c ****     #define CY_CFG_SECTION _Pragma("location=\".psocinit\"")
  52:Generated_Source\PSoC4/cyfitter_cfg.c ****     
  53:Generated_Source\PSoC4/cyfitter_cfg.c ****     #define CY_CFG_MEMORY_BARRIER() __DMB()
  54:Generated_Source\PSoC4/cyfitter_cfg.c ****     
  55:Generated_Source\PSoC4/cyfitter_cfg.c **** #else
  56:Generated_Source\PSoC4/cyfitter_cfg.c ****     #error Unsupported toolchain
  57:Generated_Source\PSoC4/cyfitter_cfg.c **** #endif
  58:Generated_Source\PSoC4/cyfitter_cfg.c **** 
  59:Generated_Source\PSoC4/cyfitter_cfg.c **** #ifndef CYCODE
  60:Generated_Source\PSoC4/cyfitter_cfg.c ****     #define CYCODE
  61:Generated_Source\PSoC4/cyfitter_cfg.c **** #endif
  62:Generated_Source\PSoC4/cyfitter_cfg.c **** #ifndef CYDATA
  63:Generated_Source\PSoC4/cyfitter_cfg.c ****     #define CYDATA
  64:Generated_Source\PSoC4/cyfitter_cfg.c **** #endif
  65:Generated_Source\PSoC4/cyfitter_cfg.c **** #ifndef CYFAR
  66:Generated_Source\PSoC4/cyfitter_cfg.c ****     #define CYFAR
  67:Generated_Source\PSoC4/cyfitter_cfg.c **** #endif
  68:Generated_Source\PSoC4/cyfitter_cfg.c **** #ifndef CYXDATA
  69:Generated_Source\PSoC4/cyfitter_cfg.c ****     #define CYXDATA
  70:Generated_Source\PSoC4/cyfitter_cfg.c **** #endif
  71:Generated_Source\PSoC4/cyfitter_cfg.c **** 
  72:Generated_Source\PSoC4/cyfitter_cfg.c **** 
  73:Generated_Source\PSoC4/cyfitter_cfg.c **** CY_CFG_UNUSED
  74:Generated_Source\PSoC4/cyfitter_cfg.c **** static void CYMEMZERO(void *s, size_t n);
  75:Generated_Source\PSoC4/cyfitter_cfg.c **** CY_CFG_UNUSED
  76:Generated_Source\PSoC4/cyfitter_cfg.c **** static void CYMEMZERO(void *s, size_t n)
  77:Generated_Source\PSoC4/cyfitter_cfg.c **** {
  78:Generated_Source\PSoC4/cyfitter_cfg.c **** 	(void)memset(s, 0, n);
  79:Generated_Source\PSoC4/cyfitter_cfg.c **** }
  80:Generated_Source\PSoC4/cyfitter_cfg.c **** CY_CFG_UNUSED
  81:Generated_Source\PSoC4/cyfitter_cfg.c **** static void CYCONFIGCPY(void *dest, const void *src, size_t n);
  82:Generated_Source\PSoC4/cyfitter_cfg.c **** CY_CFG_UNUSED
  83:Generated_Source\PSoC4/cyfitter_cfg.c **** static void CYCONFIGCPY(void *dest, const void *src, size_t n)
  84:Generated_Source\PSoC4/cyfitter_cfg.c **** {
  85:Generated_Source\PSoC4/cyfitter_cfg.c **** 	(void)memcpy(dest, src, n);
  86:Generated_Source\PSoC4/cyfitter_cfg.c **** }
  87:Generated_Source\PSoC4/cyfitter_cfg.c **** CY_CFG_UNUSED
  88:Generated_Source\PSoC4/cyfitter_cfg.c **** static void CYCONFIGCPYCODE(void *dest, const void *src, size_t n);
ARM GAS  C:\Users\mac_000\AppData\Local\Temp\ccO0OvQ6.s 			page 3


  89:Generated_Source\PSoC4/cyfitter_cfg.c **** CY_CFG_UNUSED
  90:Generated_Source\PSoC4/cyfitter_cfg.c **** static void CYCONFIGCPYCODE(void *dest, const void *src, size_t n)
  91:Generated_Source\PSoC4/cyfitter_cfg.c **** {
  92:Generated_Source\PSoC4/cyfitter_cfg.c **** 	(void)memcpy(dest, src, n);
  93:Generated_Source\PSoC4/cyfitter_cfg.c **** }
  94:Generated_Source\PSoC4/cyfitter_cfg.c **** 
  95:Generated_Source\PSoC4/cyfitter_cfg.c **** 
  96:Generated_Source\PSoC4/cyfitter_cfg.c **** 
  97:Generated_Source\PSoC4/cyfitter_cfg.c **** 
  98:Generated_Source\PSoC4/cyfitter_cfg.c **** /* Clock startup error codes                                                   */
  99:Generated_Source\PSoC4/cyfitter_cfg.c **** #define CYCLOCKSTART_NO_ERROR    0u
 100:Generated_Source\PSoC4/cyfitter_cfg.c **** #define CYCLOCKSTART_XTAL_ERROR  1u
 101:Generated_Source\PSoC4/cyfitter_cfg.c **** #define CYCLOCKSTART_32KHZ_ERROR 2u
 102:Generated_Source\PSoC4/cyfitter_cfg.c **** #define CYCLOCKSTART_PLL_ERROR   3u
 103:Generated_Source\PSoC4/cyfitter_cfg.c **** #define CYCLOCKSTART_FLL_ERROR   4u
 104:Generated_Source\PSoC4/cyfitter_cfg.c **** #define CYCLOCKSTART_WCO_ERROR   5u
 105:Generated_Source\PSoC4/cyfitter_cfg.c **** 
 106:Generated_Source\PSoC4/cyfitter_cfg.c **** 
 107:Generated_Source\PSoC4/cyfitter_cfg.c **** #ifdef CY_NEED_CYCLOCKSTARTUPERROR
 108:Generated_Source\PSoC4/cyfitter_cfg.c **** /*******************************************************************************
 109:Generated_Source\PSoC4/cyfitter_cfg.c **** * Function Name: CyClockStartupError
 110:Generated_Source\PSoC4/cyfitter_cfg.c **** ********************************************************************************
 111:Generated_Source\PSoC4/cyfitter_cfg.c **** * Summary:
 112:Generated_Source\PSoC4/cyfitter_cfg.c **** *  If an error is encountered during clock configuration (crystal startup error,
 113:Generated_Source\PSoC4/cyfitter_cfg.c **** *  PLL lock error, etc.), the system will end up here.  Unless reimplemented by
 114:Generated_Source\PSoC4/cyfitter_cfg.c **** *  the customer, this function will stop in an infinite loop.
 115:Generated_Source\PSoC4/cyfitter_cfg.c **** *
 116:Generated_Source\PSoC4/cyfitter_cfg.c **** * Parameters:
 117:Generated_Source\PSoC4/cyfitter_cfg.c **** *   void
 118:Generated_Source\PSoC4/cyfitter_cfg.c **** *
 119:Generated_Source\PSoC4/cyfitter_cfg.c **** * Return:
 120:Generated_Source\PSoC4/cyfitter_cfg.c **** *   void
 121:Generated_Source\PSoC4/cyfitter_cfg.c **** *
 122:Generated_Source\PSoC4/cyfitter_cfg.c **** *******************************************************************************/
 123:Generated_Source\PSoC4/cyfitter_cfg.c **** CY_CFG_UNUSED
 124:Generated_Source\PSoC4/cyfitter_cfg.c **** static void CyClockStartupError(uint8 errorCode);
 125:Generated_Source\PSoC4/cyfitter_cfg.c **** CY_CFG_UNUSED
 126:Generated_Source\PSoC4/cyfitter_cfg.c **** static void CyClockStartupError(uint8 errorCode)
 127:Generated_Source\PSoC4/cyfitter_cfg.c **** {
 128:Generated_Source\PSoC4/cyfitter_cfg.c ****     /* To remove the compiler warning if errorCode not used.                */
 129:Generated_Source\PSoC4/cyfitter_cfg.c ****     errorCode = errorCode;
 130:Generated_Source\PSoC4/cyfitter_cfg.c **** 
 131:Generated_Source\PSoC4/cyfitter_cfg.c ****     /* If we have a clock startup error (bad MHz crystal, PLL lock, etc.),  */
 132:Generated_Source\PSoC4/cyfitter_cfg.c ****     /* we will end up here to allow the customer to implement something to  */
 133:Generated_Source\PSoC4/cyfitter_cfg.c ****     /* deal with the clock condition.                                       */
 134:Generated_Source\PSoC4/cyfitter_cfg.c **** 
 135:Generated_Source\PSoC4/cyfitter_cfg.c **** #ifdef CY_CFG_CLOCK_STARTUP_ERROR_CALLBACK
 136:Generated_Source\PSoC4/cyfitter_cfg.c ****     CY_CFG_Clock_Startup_ErrorCallback();
 137:Generated_Source\PSoC4/cyfitter_cfg.c **** #else
 138:Generated_Source\PSoC4/cyfitter_cfg.c ****     /*  If not using CY_CFG_CLOCK_STARTUP_ERROR_CALLBACK, place your clock startup code here. */
 139:Generated_Source\PSoC4/cyfitter_cfg.c ****     /* `#START CyClockStartupError` */
 140:Generated_Source\PSoC4/cyfitter_cfg.c **** 
 141:Generated_Source\PSoC4/cyfitter_cfg.c **** 
 142:Generated_Source\PSoC4/cyfitter_cfg.c **** 
 143:Generated_Source\PSoC4/cyfitter_cfg.c ****     /* `#END` */
 144:Generated_Source\PSoC4/cyfitter_cfg.c **** 
 145:Generated_Source\PSoC4/cyfitter_cfg.c ****     while(1) {}
ARM GAS  C:\Users\mac_000\AppData\Local\Temp\ccO0OvQ6.s 			page 4


 146:Generated_Source\PSoC4/cyfitter_cfg.c **** #endif /* CY_CFG_CLOCK_STARTUP_ERROR_CALLBACK */
 147:Generated_Source\PSoC4/cyfitter_cfg.c **** }
 148:Generated_Source\PSoC4/cyfitter_cfg.c **** #endif
 149:Generated_Source\PSoC4/cyfitter_cfg.c **** 
 150:Generated_Source\PSoC4/cyfitter_cfg.c **** #define CY_CFG_BASE_ADDR_COUNT 8u
 151:Generated_Source\PSoC4/cyfitter_cfg.c **** CYPACKED typedef struct
 152:Generated_Source\PSoC4/cyfitter_cfg.c **** {
 153:Generated_Source\PSoC4/cyfitter_cfg.c **** 	uint8 offset;
 154:Generated_Source\PSoC4/cyfitter_cfg.c **** 	uint8 value;
 155:Generated_Source\PSoC4/cyfitter_cfg.c **** } CYPACKED_ATTR cy_cfg_addrvalue_t;
 156:Generated_Source\PSoC4/cyfitter_cfg.c **** 
 157:Generated_Source\PSoC4/cyfitter_cfg.c **** 
 158:Generated_Source\PSoC4/cyfitter_cfg.c **** 
 159:Generated_Source\PSoC4/cyfitter_cfg.c **** /*******************************************************************************
 160:Generated_Source\PSoC4/cyfitter_cfg.c **** * Function Name: cfg_write_bytes32
 161:Generated_Source\PSoC4/cyfitter_cfg.c **** ********************************************************************************
 162:Generated_Source\PSoC4/cyfitter_cfg.c **** * Summary:
 163:Generated_Source\PSoC4/cyfitter_cfg.c **** *  This function is used for setting up the chip configuration areas that
 164:Generated_Source\PSoC4/cyfitter_cfg.c **** *  contain relatively sparse data.
 165:Generated_Source\PSoC4/cyfitter_cfg.c **** *
 166:Generated_Source\PSoC4/cyfitter_cfg.c **** * Parameters:
 167:Generated_Source\PSoC4/cyfitter_cfg.c **** *   void
 168:Generated_Source\PSoC4/cyfitter_cfg.c **** *
 169:Generated_Source\PSoC4/cyfitter_cfg.c **** * Return:
 170:Generated_Source\PSoC4/cyfitter_cfg.c **** *   void
 171:Generated_Source\PSoC4/cyfitter_cfg.c **** *
 172:Generated_Source\PSoC4/cyfitter_cfg.c **** *******************************************************************************/
 173:Generated_Source\PSoC4/cyfitter_cfg.c **** static void cfg_write_bytes32(const uint32 addr_table[], const cy_cfg_addrvalue_t data_table[]);
 174:Generated_Source\PSoC4/cyfitter_cfg.c **** static void cfg_write_bytes32(const uint32 addr_table[], const cy_cfg_addrvalue_t data_table[])
 175:Generated_Source\PSoC4/cyfitter_cfg.c **** {
  27              		.loc 1 175 0
  28              		.cfi_startproc
  29              		@ args = 0, pretend = 0, frame = 0
  30              		@ frame_needed = 0, uses_anonymous_args = 0
  31              	.LVL0:
  32 0000 F0B5     		push	{r4, r5, r6, r7, lr}
  33              		.cfi_def_cfa_offset 20
  34              		.cfi_offset 4, -20
  35              		.cfi_offset 5, -16
  36              		.cfi_offset 6, -12
  37              		.cfi_offset 7, -8
  38              		.cfi_offset 14, -4
  39              	.LVL1:
 176:Generated_Source\PSoC4/cyfitter_cfg.c **** 	/* For 32-bit little-endian architectures */
 177:Generated_Source\PSoC4/cyfitter_cfg.c **** 	uint32 i, j = 0u;
  40              		.loc 1 177 0
  41 0002 0025     		movs	r5, #0
 178:Generated_Source\PSoC4/cyfitter_cfg.c **** 	for (i = 0u; i < CY_CFG_BASE_ADDR_COUNT; i++)
  42              		.loc 1 178 0
  43 0004 0027     		movs	r7, #0
  44 0006 11E0     		b	.L2
  45              	.LVL2:
  46              	.L5:
  47              	.LBB2:
 179:Generated_Source\PSoC4/cyfitter_cfg.c **** 	{
 180:Generated_Source\PSoC4/cyfitter_cfg.c **** 		uint32 baseAddr = addr_table[i];
  48              		.loc 1 180 0
ARM GAS  C:\Users\mac_000\AppData\Local\Temp\ccO0OvQ6.s 			page 5


  49 0008 BB00     		lsls	r3, r7, #2
  50 000a C658     		ldr	r6, [r0, r3]
  51              	.LVL3:
 181:Generated_Source\PSoC4/cyfitter_cfg.c **** 		uint8 count = (uint8)baseAddr;
  52              		.loc 1 181 0
  53 000c F3B2     		uxtb	r3, r6
  54              	.LVL4:
 182:Generated_Source\PSoC4/cyfitter_cfg.c **** 		baseAddr &= 0xFFFFFF00u;
  55              		.loc 1 182 0
  56 000e FF22     		movs	r2, #255
  57 0010 9643     		bics	r6, r2
  58              	.LVL5:
 183:Generated_Source\PSoC4/cyfitter_cfg.c **** 		while (count != 0u)
  59              		.loc 1 183 0
  60 0012 08E0     		b	.L3
  61              	.L4:
 184:Generated_Source\PSoC4/cyfitter_cfg.c **** 		{
 185:Generated_Source\PSoC4/cyfitter_cfg.c **** 			CY_SET_REG8((void *)(baseAddr + data_table[j].offset), data_table[j].value);
  62              		.loc 1 185 0
  63 0014 6A00     		lsls	r2, r5, #1
  64 0016 8A18     		adds	r2, r1, r2
  65 0018 1478     		ldrb	r4, [r2]
  66 001a A419     		adds	r4, r4, r6
  67 001c 5278     		ldrb	r2, [r2, #1]
  68 001e 2270     		strb	r2, [r4]
 186:Generated_Source\PSoC4/cyfitter_cfg.c **** 			j++;
  69              		.loc 1 186 0
  70 0020 0135     		adds	r5, r5, #1
  71              	.LVL6:
 187:Generated_Source\PSoC4/cyfitter_cfg.c **** 			count--;
  72              		.loc 1 187 0
  73 0022 013B     		subs	r3, r3, #1
  74              	.LVL7:
  75 0024 DBB2     		uxtb	r3, r3
  76              	.LVL8:
  77              	.L3:
 183:Generated_Source\PSoC4/cyfitter_cfg.c **** 		{
  78              		.loc 1 183 0
  79 0026 002B     		cmp	r3, #0
  80 0028 F4D1     		bne	.L4
  81              	.LBE2:
 178:Generated_Source\PSoC4/cyfitter_cfg.c **** 	{
  82              		.loc 1 178 0 discriminator 2
  83 002a 0137     		adds	r7, r7, #1
  84              	.LVL9:
  85              	.L2:
 178:Generated_Source\PSoC4/cyfitter_cfg.c **** 	{
  86              		.loc 1 178 0 is_stmt 0 discriminator 1
  87 002c 072F     		cmp	r7, #7
  88 002e EBD9     		bls	.L5
 188:Generated_Source\PSoC4/cyfitter_cfg.c **** 		}
 189:Generated_Source\PSoC4/cyfitter_cfg.c **** 	}
 190:Generated_Source\PSoC4/cyfitter_cfg.c **** }
  89              		.loc 1 190 0 is_stmt 1
  90              		@ sp needed
  91              	.LVL10:
  92              	.LVL11:
ARM GAS  C:\Users\mac_000\AppData\Local\Temp\ccO0OvQ6.s 			page 6


  93 0030 F0BD     		pop	{r4, r5, r6, r7, pc}
  94              		.cfi_endproc
  95              	.LFE3:
  96              		.size	cfg_write_bytes32, .-cfg_write_bytes32
  97 0032 C046     		.section	.text.CYMEMZERO,"ax",%progbits
  98              		.align	2
  99              		.code	16
 100              		.thumb_func
 101              		.type	CYMEMZERO, %function
 102              	CYMEMZERO:
 103              	.LFB0:
  77:Generated_Source\PSoC4/cyfitter_cfg.c **** 	(void)memset(s, 0, n);
 104              		.loc 1 77 0
 105              		.cfi_startproc
 106              		@ args = 0, pretend = 0, frame = 0
 107              		@ frame_needed = 0, uses_anonymous_args = 0
 108              	.LVL12:
 109 0000 10B5     		push	{r4, lr}
 110              		.cfi_def_cfa_offset 8
 111              		.cfi_offset 4, -8
 112              		.cfi_offset 14, -4
 113 0002 0A00     		movs	r2, r1
  78:Generated_Source\PSoC4/cyfitter_cfg.c **** }
 114              		.loc 1 78 0
 115 0004 0021     		movs	r1, #0
 116              	.LVL13:
 117 0006 FFF7FEFF 		bl	memset
 118              	.LVL14:
  79:Generated_Source\PSoC4/cyfitter_cfg.c **** CY_CFG_UNUSED
 119              		.loc 1 79 0
 120              		@ sp needed
 121 000a 10BD     		pop	{r4, pc}
 122              		.cfi_endproc
 123              	.LFE0:
 124              		.size	CYMEMZERO, .-CYMEMZERO
 125              		.section	.psocinit,"ax",%progbits
 126              		.align	2
 127              		.code	16
 128              		.thumb_func
 129              		.type	ClockSetup, %function
 130              	ClockSetup:
 131              	.LFB4:
 191:Generated_Source\PSoC4/cyfitter_cfg.c **** 
 192:Generated_Source\PSoC4/cyfitter_cfg.c **** 
 193:Generated_Source\PSoC4/cyfitter_cfg.c **** /*******************************************************************************
 194:Generated_Source\PSoC4/cyfitter_cfg.c **** * Function Name: ClockSetup
 195:Generated_Source\PSoC4/cyfitter_cfg.c **** ********************************************************************************
 196:Generated_Source\PSoC4/cyfitter_cfg.c **** *
 197:Generated_Source\PSoC4/cyfitter_cfg.c **** * Summary:
 198:Generated_Source\PSoC4/cyfitter_cfg.c **** *   Performs the initialization of all of the clocks in the device based on the
 199:Generated_Source\PSoC4/cyfitter_cfg.c **** *   settings in the Clock tab of the DWR.  This includes enabling the requested
 200:Generated_Source\PSoC4/cyfitter_cfg.c **** *   clocks and setting the necessary dividers to produce the desired frequency. 
 201:Generated_Source\PSoC4/cyfitter_cfg.c **** *
 202:Generated_Source\PSoC4/cyfitter_cfg.c **** * Parameters:
 203:Generated_Source\PSoC4/cyfitter_cfg.c **** *   void
 204:Generated_Source\PSoC4/cyfitter_cfg.c **** *
 205:Generated_Source\PSoC4/cyfitter_cfg.c **** * Return:
ARM GAS  C:\Users\mac_000\AppData\Local\Temp\ccO0OvQ6.s 			page 7


 206:Generated_Source\PSoC4/cyfitter_cfg.c **** *   void
 207:Generated_Source\PSoC4/cyfitter_cfg.c **** *
 208:Generated_Source\PSoC4/cyfitter_cfg.c **** *******************************************************************************/
 209:Generated_Source\PSoC4/cyfitter_cfg.c **** static void ClockSetup(void);
 210:Generated_Source\PSoC4/cyfitter_cfg.c **** CY_CFG_SECTION
 211:Generated_Source\PSoC4/cyfitter_cfg.c **** static void ClockSetup(void)
 212:Generated_Source\PSoC4/cyfitter_cfg.c **** {
 132              		.loc 1 212 0
 133              		.cfi_startproc
 134              		@ args = 0, pretend = 0, frame = 0
 135              		@ frame_needed = 0, uses_anonymous_args = 0
 136 0000 70B5     		push	{r4, r5, r6, lr}
 137              		.cfi_def_cfa_offset 16
 138              		.cfi_offset 4, -16
 139              		.cfi_offset 5, -12
 140              		.cfi_offset 6, -8
 141              		.cfi_offset 14, -4
 213:Generated_Source\PSoC4/cyfitter_cfg.c **** 	/* Enable HALF_EN before trimming for the flash accelerator. */
 214:Generated_Source\PSoC4/cyfitter_cfg.c **** 	CY_SET_REG32((void CYXDATA *)(CYREG_CLK_SELECT), (CY_GET_REG32((void *)CYREG_CLK_SELECT) | 0x00040
 142              		.loc 1 214 0
 143 0002 194C     		ldr	r4, .L8
 144 0004 2368     		ldr	r3, [r4]
 145 0006 8022     		movs	r2, #128
 146 0008 D202     		lsls	r2, r2, #11
 147 000a 1343     		orrs	r3, r2
 148 000c 2360     		str	r3, [r4]
 215:Generated_Source\PSoC4/cyfitter_cfg.c **** 
 216:Generated_Source\PSoC4/cyfitter_cfg.c **** 	/* Setup and trim IMO based on desired frequency. */
 217:Generated_Source\PSoC4/cyfitter_cfg.c **** 	CySysClkWriteImoFreq(24u);
 149              		.loc 1 217 0
 150 000e 1820     		movs	r0, #24
 151 0010 FFF7FEFF 		bl	CySysClkWriteImoFreq
 152              	.LVL15:
 218:Generated_Source\PSoC4/cyfitter_cfg.c **** 
 219:Generated_Source\PSoC4/cyfitter_cfg.c **** 	/* Disable HALF_EN since it is not required at this IMO frequency. */
 220:Generated_Source\PSoC4/cyfitter_cfg.c **** 	CY_SET_REG32((void CYXDATA *)(CYREG_CLK_SELECT), (CY_GET_REG32((void *)CYREG_CLK_SELECT) & 0xFFFBF
 153              		.loc 1 220 0
 154 0014 2268     		ldr	r2, [r4]
 155 0016 154B     		ldr	r3, .L8+4
 156 0018 1340     		ands	r3, r2
 157 001a 2360     		str	r3, [r4]
 221:Generated_Source\PSoC4/cyfitter_cfg.c **** 	/* CYDEV_CLK_ILO_CONFIG Starting address: CYDEV_CLK_ILO_CONFIG */
 222:Generated_Source\PSoC4/cyfitter_cfg.c **** 	CY_SET_REG32((void *)(CYREG_CLK_ILO_CONFIG), 0x80000006u);
 158              		.loc 1 222 0
 159 001c 144A     		ldr	r2, .L8+8
 160 001e 154B     		ldr	r3, .L8+12
 161 0020 1A60     		str	r2, [r3]
 223:Generated_Source\PSoC4/cyfitter_cfg.c **** 
 224:Generated_Source\PSoC4/cyfitter_cfg.c **** 
 225:Generated_Source\PSoC4/cyfitter_cfg.c **** 	/* CYDEV_CLK_SELECT00 Starting address: CYDEV_CLK_SELECT00 */
 226:Generated_Source\PSoC4/cyfitter_cfg.c **** 	CY_SET_REG32((void *)(CYREG_CLK_SELECT02), 0x00000010u);
 162              		.loc 1 226 0
 163 0022 1022     		movs	r2, #16
 164 0024 144B     		ldr	r3, .L8+16
 165 0026 1A60     		str	r2, [r3]
 227:Generated_Source\PSoC4/cyfitter_cfg.c **** 	CY_SET_REG32((void *)(CYREG_CLK_SELECT13), 0x00000013u);
 166              		.loc 1 227 0
ARM GAS  C:\Users\mac_000\AppData\Local\Temp\ccO0OvQ6.s 			page 8


 167 0028 0332     		adds	r2, r2, #3
 168 002a 144B     		ldr	r3, .L8+20
 169 002c 1A60     		str	r2, [r3]
 228:Generated_Source\PSoC4/cyfitter_cfg.c **** 	CY_SET_REG32((void *)(CYREG_CLK_SELECT15), 0x00000020u);
 170              		.loc 1 228 0
 171 002e 0D32     		adds	r2, r2, #13
 172 0030 134B     		ldr	r3, .L8+24
 173 0032 1A60     		str	r2, [r3]
 229:Generated_Source\PSoC4/cyfitter_cfg.c **** 
 230:Generated_Source\PSoC4/cyfitter_cfg.c **** 	/* CYDEV_CLK_IMO_CONFIG Starting address: CYDEV_CLK_IMO_CONFIG */
 231:Generated_Source\PSoC4/cyfitter_cfg.c **** 	CY_SET_REG32((void *)(CYREG_CLK_IMO_CONFIG), 0x80000000u);
 174              		.loc 1 231 0
 175 0034 8022     		movs	r2, #128
 176 0036 1206     		lsls	r2, r2, #24
 177 0038 124B     		ldr	r3, .L8+28
 178 003a 1A60     		str	r2, [r3]
 232:Generated_Source\PSoC4/cyfitter_cfg.c **** 
 233:Generated_Source\PSoC4/cyfitter_cfg.c **** 	/* CYDEV_CLK_SELECT Starting address: CYDEV_CLK_SELECT */
 234:Generated_Source\PSoC4/cyfitter_cfg.c **** 	CY_SET_REG32((void *)(CYREG_CLK_SELECT), 0x00000000u);
 179              		.loc 1 234 0
 180 003c 0025     		movs	r5, #0
 181 003e 2560     		str	r5, [r4]
 235:Generated_Source\PSoC4/cyfitter_cfg.c **** 
 236:Generated_Source\PSoC4/cyfitter_cfg.c **** 	/* CYDEV_CLK_DIVIDER_A00 Starting address: CYDEV_CLK_DIVIDER_A00 */
 237:Generated_Source\PSoC4/cyfitter_cfg.c **** 	CY_SET_REG32((void *)(CYREG_CLK_DIVIDER_A00), 0x80000014u);
 182              		.loc 1 237 0
 183 0040 114A     		ldr	r2, .L8+32
 184 0042 124B     		ldr	r3, .L8+36
 185 0044 1A60     		str	r2, [r3]
 238:Generated_Source\PSoC4/cyfitter_cfg.c **** 
 239:Generated_Source\PSoC4/cyfitter_cfg.c **** 	/* CYDEV_CLK_DIVIDER_B00 Starting address: CYDEV_CLK_DIVIDER_B00 */
 240:Generated_Source\PSoC4/cyfitter_cfg.c **** 	CY_SET_REG32((void *)(CYREG_CLK_DIVIDER_B00), 0x80005DBFu);
 186              		.loc 1 240 0
 187 0046 124A     		ldr	r2, .L8+40
 188 0048 124B     		ldr	r3, .L8+44
 189 004a 1A60     		str	r2, [r3]
 241:Generated_Source\PSoC4/cyfitter_cfg.c **** 
 242:Generated_Source\PSoC4/cyfitter_cfg.c **** 	/* CYDEV_CLK_DIVIDER_FRAC_A00 Starting address: CYDEV_CLK_DIVIDER_FRAC_A00 */
 243:Generated_Source\PSoC4/cyfitter_cfg.c **** 	CY_SET_REG32((void *)(CYREG_CLK_DIVIDER_FRAC_A00), 0x8004005Du);
 190              		.loc 1 243 0
 191 004c 124A     		ldr	r2, .L8+48
 192 004e 134B     		ldr	r3, .L8+52
 193 0050 1A60     		str	r2, [r3]
 244:Generated_Source\PSoC4/cyfitter_cfg.c **** 
 245:Generated_Source\PSoC4/cyfitter_cfg.c **** 	(void)CyIntSetVector(9u, &CySysWdtIsr);
 194              		.loc 1 245 0
 195 0052 1349     		ldr	r1, .L8+56
 196 0054 0920     		movs	r0, #9
 197 0056 FFF7FEFF 		bl	CyIntSetVector
 198              	.LVL16:
 246:Generated_Source\PSoC4/cyfitter_cfg.c **** 	CyIntEnable(9u);
 199              		.loc 1 246 0
 200 005a 0920     		movs	r0, #9
 201 005c FFF7FEFF 		bl	CyIntEnable
 202              	.LVL17:
 247:Generated_Source\PSoC4/cyfitter_cfg.c **** 	CY_SET_REG32((void *)(CYREG_WDT_CONFIG), 0x00000000u);
 203              		.loc 1 247 0
ARM GAS  C:\Users\mac_000\AppData\Local\Temp\ccO0OvQ6.s 			page 9


 204 0060 104B     		ldr	r3, .L8+60
 205 0062 1D60     		str	r5, [r3]
 248:Generated_Source\PSoC4/cyfitter_cfg.c **** }
 206              		.loc 1 248 0
 207              		@ sp needed
 208 0064 70BD     		pop	{r4, r5, r6, pc}
 209              	.L9:
 210 0066 C046     		.align	2
 211              	.L8:
 212 0068 00010B40 		.word	1074462976
 213 006c FFFFFBFF 		.word	-262145
 214 0070 06000080 		.word	-2147483642
 215 0074 04010B40 		.word	1074462980
 216 0078 08020240 		.word	1073873416
 217 007c 34020240 		.word	1073873460
 218 0080 3C020240 		.word	1073873468
 219 0084 08010B40 		.word	1074462984
 220 0088 14000080 		.word	-2147483628
 221 008c 00000240 		.word	1073872896
 222 0090 BF5D0080 		.word	-2147459649
 223 0094 40000240 		.word	1073872960
 224 0098 5D000480 		.word	-2147221411
 225 009c 00010240 		.word	1073873152
 226 00a0 00000000 		.word	CySysWdtIsr
 227 00a4 0C020B40 		.word	1074463244
 228              		.cfi_endproc
 229              	.LFE4:
 230              		.size	ClockSetup, .-ClockSetup
 231              		.align	2
 232              		.global	cyfitter_cfg
 233              		.code	16
 234              		.thumb_func
 235              		.type	cyfitter_cfg, %function
 236              	cyfitter_cfg:
 237              	.LFB6:
 249:Generated_Source\PSoC4/cyfitter_cfg.c **** 
 250:Generated_Source\PSoC4/cyfitter_cfg.c **** 
 251:Generated_Source\PSoC4/cyfitter_cfg.c **** /* Analog API Functions */
 252:Generated_Source\PSoC4/cyfitter_cfg.c **** 
 253:Generated_Source\PSoC4/cyfitter_cfg.c **** 
 254:Generated_Source\PSoC4/cyfitter_cfg.c **** /*******************************************************************************
 255:Generated_Source\PSoC4/cyfitter_cfg.c **** * Function Name: AnalogSetDefault
 256:Generated_Source\PSoC4/cyfitter_cfg.c **** ********************************************************************************
 257:Generated_Source\PSoC4/cyfitter_cfg.c **** *
 258:Generated_Source\PSoC4/cyfitter_cfg.c **** * Summary:
 259:Generated_Source\PSoC4/cyfitter_cfg.c **** *  Sets up the analog portions of the chip to default values based on chip
 260:Generated_Source\PSoC4/cyfitter_cfg.c **** *  configuration options from the project.
 261:Generated_Source\PSoC4/cyfitter_cfg.c **** *
 262:Generated_Source\PSoC4/cyfitter_cfg.c **** * Parameters:
 263:Generated_Source\PSoC4/cyfitter_cfg.c **** *  void
 264:Generated_Source\PSoC4/cyfitter_cfg.c **** *
 265:Generated_Source\PSoC4/cyfitter_cfg.c **** * Return:
 266:Generated_Source\PSoC4/cyfitter_cfg.c **** *  void
 267:Generated_Source\PSoC4/cyfitter_cfg.c **** *
 268:Generated_Source\PSoC4/cyfitter_cfg.c **** *******************************************************************************/
 269:Generated_Source\PSoC4/cyfitter_cfg.c **** static void AnalogSetDefault(void);
 270:Generated_Source\PSoC4/cyfitter_cfg.c **** static void AnalogSetDefault(void)
ARM GAS  C:\Users\mac_000\AppData\Local\Temp\ccO0OvQ6.s 			page 10


 271:Generated_Source\PSoC4/cyfitter_cfg.c **** {
 272:Generated_Source\PSoC4/cyfitter_cfg.c **** }
 273:Generated_Source\PSoC4/cyfitter_cfg.c **** 
 274:Generated_Source\PSoC4/cyfitter_cfg.c **** 
 275:Generated_Source\PSoC4/cyfitter_cfg.c **** 
 276:Generated_Source\PSoC4/cyfitter_cfg.c **** 
 277:Generated_Source\PSoC4/cyfitter_cfg.c **** /*******************************************************************************
 278:Generated_Source\PSoC4/cyfitter_cfg.c **** * Function Name: cyfitter_cfg
 279:Generated_Source\PSoC4/cyfitter_cfg.c **** ********************************************************************************
 280:Generated_Source\PSoC4/cyfitter_cfg.c **** * Summary:
 281:Generated_Source\PSoC4/cyfitter_cfg.c **** *  This function is called by the start-up code for the selected device. It
 282:Generated_Source\PSoC4/cyfitter_cfg.c **** *  performs all of the necessary device configuration based on the design
 283:Generated_Source\PSoC4/cyfitter_cfg.c **** *  settings.  This includes settings from the Design Wide Resources (DWR) such
 284:Generated_Source\PSoC4/cyfitter_cfg.c **** *  as Clocks and Pins as well as any component configuration that is necessary.
 285:Generated_Source\PSoC4/cyfitter_cfg.c **** *
 286:Generated_Source\PSoC4/cyfitter_cfg.c **** * Parameters:
 287:Generated_Source\PSoC4/cyfitter_cfg.c **** *   void
 288:Generated_Source\PSoC4/cyfitter_cfg.c **** *
 289:Generated_Source\PSoC4/cyfitter_cfg.c **** * Return:
 290:Generated_Source\PSoC4/cyfitter_cfg.c **** *   void
 291:Generated_Source\PSoC4/cyfitter_cfg.c **** *
 292:Generated_Source\PSoC4/cyfitter_cfg.c **** *******************************************************************************/
 293:Generated_Source\PSoC4/cyfitter_cfg.c **** CY_CFG_SECTION
 294:Generated_Source\PSoC4/cyfitter_cfg.c **** void cyfitter_cfg(void)
 295:Generated_Source\PSoC4/cyfitter_cfg.c **** {
 238              		.loc 1 295 0
 239              		.cfi_startproc
 240              		@ args = 0, pretend = 0, frame = 0
 241              		@ frame_needed = 0, uses_anonymous_args = 0
 242 00a8 10B5     		push	{r4, lr}
 243              		.cfi_def_cfa_offset 8
 244              		.cfi_offset 4, -8
 245              		.cfi_offset 14, -4
 296:Generated_Source\PSoC4/cyfitter_cfg.c **** 	/* Disable interrupts by default. Let user enable if/when they want. */
 297:Generated_Source\PSoC4/cyfitter_cfg.c **** 	CyGlobalIntDisable;
 246              		.loc 1 297 0
 247              		.syntax divided
 248              	@ 297 "Generated_Source\PSoC4\cyfitter_cfg.c" 1
 249 00aa 72B6     		CPSID   i
 250              	@ 0 "" 2
 298:Generated_Source\PSoC4/cyfitter_cfg.c **** 
 299:Generated_Source\PSoC4/cyfitter_cfg.c **** 	/* Enable the clock in the interrupt controller for the routed interrupts */
 300:Generated_Source\PSoC4/cyfitter_cfg.c **** 	CY_SET_REG8((void *)CYREG_UDB_UDBIF_INT_CLK_CTL, 0x01u);
 251              		.loc 1 300 0
 252              		.thumb
 253              		.syntax unified
 254 00ac 0122     		movs	r2, #1
 255 00ae 284B     		ldr	r3, .L13
 256 00b0 1A70     		strb	r2, [r3]
 257              	.LVL18:
 258              	.LBB3:
 301:Generated_Source\PSoC4/cyfitter_cfg.c **** 	{
 302:Generated_Source\PSoC4/cyfitter_cfg.c **** 		static const uint32 CYCODE cy_cfg_addr_table[] = {
 303:Generated_Source\PSoC4/cyfitter_cfg.c **** 			0x400F0002u, /* Base address: 0x400F0000 Count: 2 */
 304:Generated_Source\PSoC4/cyfitter_cfg.c **** 			0x400F3051u, /* Base address: 0x400F3000 Count: 81 */
 305:Generated_Source\PSoC4/cyfitter_cfg.c **** 			0x400F3134u, /* Base address: 0x400F3100 Count: 52 */
 306:Generated_Source\PSoC4/cyfitter_cfg.c **** 			0x400F3302u, /* Base address: 0x400F3300 Count: 2 */
ARM GAS  C:\Users\mac_000\AppData\Local\Temp\ccO0OvQ6.s 			page 11


 307:Generated_Source\PSoC4/cyfitter_cfg.c **** 			0x400F4004u, /* Base address: 0x400F4000 Count: 4 */
 308:Generated_Source\PSoC4/cyfitter_cfg.c **** 			0x400F4202u, /* Base address: 0x400F4200 Count: 2 */
 309:Generated_Source\PSoC4/cyfitter_cfg.c **** 			0x400F4302u, /* Base address: 0x400F4300 Count: 2 */
 310:Generated_Source\PSoC4/cyfitter_cfg.c **** 			0x400F6002u, /* Base address: 0x400F6000 Count: 2 */
 311:Generated_Source\PSoC4/cyfitter_cfg.c **** 		};
 312:Generated_Source\PSoC4/cyfitter_cfg.c **** 
 313:Generated_Source\PSoC4/cyfitter_cfg.c **** 		static const cy_cfg_addrvalue_t CYCODE cy_cfg_data_table[] = {
 314:Generated_Source\PSoC4/cyfitter_cfg.c **** 			{0x80u, 0x0Fu},
 315:Generated_Source\PSoC4/cyfitter_cfg.c **** 			{0x81u, 0x0Du},
 316:Generated_Source\PSoC4/cyfitter_cfg.c **** 			{0x0Fu, 0x05u},
 317:Generated_Source\PSoC4/cyfitter_cfg.c **** 			{0x13u, 0x01u},
 318:Generated_Source\PSoC4/cyfitter_cfg.c **** 			{0x15u, 0x01u},
 319:Generated_Source\PSoC4/cyfitter_cfg.c **** 			{0x17u, 0x02u},
 320:Generated_Source\PSoC4/cyfitter_cfg.c **** 			{0x23u, 0x04u},
 321:Generated_Source\PSoC4/cyfitter_cfg.c **** 			{0x31u, 0x02u},
 322:Generated_Source\PSoC4/cyfitter_cfg.c **** 			{0x33u, 0x01u},
 323:Generated_Source\PSoC4/cyfitter_cfg.c **** 			{0x35u, 0x01u},
 324:Generated_Source\PSoC4/cyfitter_cfg.c **** 			{0x37u, 0x04u},
 325:Generated_Source\PSoC4/cyfitter_cfg.c **** 			{0x3Fu, 0x50u},
 326:Generated_Source\PSoC4/cyfitter_cfg.c **** 			{0x40u, 0x45u},
 327:Generated_Source\PSoC4/cyfitter_cfg.c **** 			{0x42u, 0x02u},
 328:Generated_Source\PSoC4/cyfitter_cfg.c **** 			{0x45u, 0xECu},
 329:Generated_Source\PSoC4/cyfitter_cfg.c **** 			{0x47u, 0x20u},
 330:Generated_Source\PSoC4/cyfitter_cfg.c **** 			{0x48u, 0x23u},
 331:Generated_Source\PSoC4/cyfitter_cfg.c **** 			{0x49u, 0xFFu},
 332:Generated_Source\PSoC4/cyfitter_cfg.c **** 			{0x4Au, 0xFFu},
 333:Generated_Source\PSoC4/cyfitter_cfg.c **** 			{0x4Bu, 0xFFu},
 334:Generated_Source\PSoC4/cyfitter_cfg.c **** 			{0x4Fu, 0x01u},
 335:Generated_Source\PSoC4/cyfitter_cfg.c **** 			{0x50u, 0x18u},
 336:Generated_Source\PSoC4/cyfitter_cfg.c **** 			{0x52u, 0x80u},
 337:Generated_Source\PSoC4/cyfitter_cfg.c **** 			{0x54u, 0x03u},
 338:Generated_Source\PSoC4/cyfitter_cfg.c **** 			{0x59u, 0x04u},
 339:Generated_Source\PSoC4/cyfitter_cfg.c **** 			{0x5Au, 0x04u},
 340:Generated_Source\PSoC4/cyfitter_cfg.c **** 			{0x5Bu, 0x04u},
 341:Generated_Source\PSoC4/cyfitter_cfg.c **** 			{0x5Cu, 0x10u},
 342:Generated_Source\PSoC4/cyfitter_cfg.c **** 			{0x5Du, 0x11u},
 343:Generated_Source\PSoC4/cyfitter_cfg.c **** 			{0x5Fu, 0x01u},
 344:Generated_Source\PSoC4/cyfitter_cfg.c **** 			{0x60u, 0x40u},
 345:Generated_Source\PSoC4/cyfitter_cfg.c **** 			{0x62u, 0x40u},
 346:Generated_Source\PSoC4/cyfitter_cfg.c **** 			{0x64u, 0x40u},
 347:Generated_Source\PSoC4/cyfitter_cfg.c **** 			{0x65u, 0x40u},
 348:Generated_Source\PSoC4/cyfitter_cfg.c **** 			{0x66u, 0x80u},
 349:Generated_Source\PSoC4/cyfitter_cfg.c **** 			{0x68u, 0x80u},
 350:Generated_Source\PSoC4/cyfitter_cfg.c **** 			{0x6Au, 0x80u},
 351:Generated_Source\PSoC4/cyfitter_cfg.c **** 			{0x6Cu, 0x80u},
 352:Generated_Source\PSoC4/cyfitter_cfg.c **** 			{0x6Eu, 0x80u},
 353:Generated_Source\PSoC4/cyfitter_cfg.c **** 			{0x82u, 0x0Fu},
 354:Generated_Source\PSoC4/cyfitter_cfg.c **** 			{0x84u, 0x07u},
 355:Generated_Source\PSoC4/cyfitter_cfg.c **** 			{0x8Fu, 0x05u},
 356:Generated_Source\PSoC4/cyfitter_cfg.c **** 			{0x91u, 0x03u},
 357:Generated_Source\PSoC4/cyfitter_cfg.c **** 			{0x94u, 0x01u},
 358:Generated_Source\PSoC4/cyfitter_cfg.c **** 			{0x98u, 0x02u},
 359:Generated_Source\PSoC4/cyfitter_cfg.c **** 			{0x9Bu, 0x02u},
 360:Generated_Source\PSoC4/cyfitter_cfg.c **** 			{0xA0u, 0x04u},
 361:Generated_Source\PSoC4/cyfitter_cfg.c **** 			{0xA4u, 0x07u},
 362:Generated_Source\PSoC4/cyfitter_cfg.c **** 			{0xA7u, 0x05u},
 363:Generated_Source\PSoC4/cyfitter_cfg.c **** 			{0xABu, 0x01u},
ARM GAS  C:\Users\mac_000\AppData\Local\Temp\ccO0OvQ6.s 			page 12


 364:Generated_Source\PSoC4/cyfitter_cfg.c **** 			{0xB2u, 0x07u},
 365:Generated_Source\PSoC4/cyfitter_cfg.c **** 			{0xB3u, 0x03u},
 366:Generated_Source\PSoC4/cyfitter_cfg.c **** 			{0xB4u, 0x08u},
 367:Generated_Source\PSoC4/cyfitter_cfg.c **** 			{0xB7u, 0x04u},
 368:Generated_Source\PSoC4/cyfitter_cfg.c **** 			{0xBFu, 0x40u},
 369:Generated_Source\PSoC4/cyfitter_cfg.c **** 			{0xC0u, 0x35u},
 370:Generated_Source\PSoC4/cyfitter_cfg.c **** 			{0xC1u, 0x01u},
 371:Generated_Source\PSoC4/cyfitter_cfg.c **** 			{0xC5u, 0xECu},
 372:Generated_Source\PSoC4/cyfitter_cfg.c **** 			{0xC6u, 0x02u},
 373:Generated_Source\PSoC4/cyfitter_cfg.c **** 			{0xC8u, 0x07u},
 374:Generated_Source\PSoC4/cyfitter_cfg.c **** 			{0xC9u, 0xFFu},
 375:Generated_Source\PSoC4/cyfitter_cfg.c **** 			{0xCAu, 0xFFu},
 376:Generated_Source\PSoC4/cyfitter_cfg.c **** 			{0xCBu, 0xFFu},
 377:Generated_Source\PSoC4/cyfitter_cfg.c **** 			{0xCFu, 0x01u},
 378:Generated_Source\PSoC4/cyfitter_cfg.c **** 			{0xD0u, 0x18u},
 379:Generated_Source\PSoC4/cyfitter_cfg.c **** 			{0xD2u, 0x80u},
 380:Generated_Source\PSoC4/cyfitter_cfg.c **** 			{0xD4u, 0x01u},
 381:Generated_Source\PSoC4/cyfitter_cfg.c **** 			{0xD8u, 0x04u},
 382:Generated_Source\PSoC4/cyfitter_cfg.c **** 			{0xD9u, 0x04u},
 383:Generated_Source\PSoC4/cyfitter_cfg.c **** 			{0xDAu, 0x04u},
 384:Generated_Source\PSoC4/cyfitter_cfg.c **** 			{0xDBu, 0x04u},
 385:Generated_Source\PSoC4/cyfitter_cfg.c **** 			{0xDCu, 0x33u},
 386:Generated_Source\PSoC4/cyfitter_cfg.c **** 			{0xDDu, 0x33u},
 387:Generated_Source\PSoC4/cyfitter_cfg.c **** 			{0xDFu, 0x05u},
 388:Generated_Source\PSoC4/cyfitter_cfg.c **** 			{0xE0u, 0x40u},
 389:Generated_Source\PSoC4/cyfitter_cfg.c **** 			{0xE2u, 0x40u},
 390:Generated_Source\PSoC4/cyfitter_cfg.c **** 			{0xE4u, 0x40u},
 391:Generated_Source\PSoC4/cyfitter_cfg.c **** 			{0xE5u, 0x40u},
 392:Generated_Source\PSoC4/cyfitter_cfg.c **** 			{0xE6u, 0x80u},
 393:Generated_Source\PSoC4/cyfitter_cfg.c **** 			{0xE8u, 0x80u},
 394:Generated_Source\PSoC4/cyfitter_cfg.c **** 			{0xEAu, 0x80u},
 395:Generated_Source\PSoC4/cyfitter_cfg.c **** 			{0xECu, 0x80u},
 396:Generated_Source\PSoC4/cyfitter_cfg.c **** 			{0xEEu, 0x80u},
 397:Generated_Source\PSoC4/cyfitter_cfg.c **** 			{0x07u, 0x50u},
 398:Generated_Source\PSoC4/cyfitter_cfg.c **** 			{0x0Du, 0x08u},
 399:Generated_Source\PSoC4/cyfitter_cfg.c **** 			{0x0Eu, 0x04u},
 400:Generated_Source\PSoC4/cyfitter_cfg.c **** 			{0x16u, 0x40u},
 401:Generated_Source\PSoC4/cyfitter_cfg.c **** 			{0x17u, 0x04u},
 402:Generated_Source\PSoC4/cyfitter_cfg.c **** 			{0x1Du, 0x08u},
 403:Generated_Source\PSoC4/cyfitter_cfg.c **** 			{0x1Eu, 0x04u},
 404:Generated_Source\PSoC4/cyfitter_cfg.c **** 			{0x1Fu, 0x14u},
 405:Generated_Source\PSoC4/cyfitter_cfg.c **** 			{0x20u, 0x04u},
 406:Generated_Source\PSoC4/cyfitter_cfg.c **** 			{0x21u, 0x02u},
 407:Generated_Source\PSoC4/cyfitter_cfg.c **** 			{0x22u, 0x58u},
 408:Generated_Source\PSoC4/cyfitter_cfg.c **** 			{0x26u, 0x40u},
 409:Generated_Source\PSoC4/cyfitter_cfg.c **** 			{0x27u, 0x10u},
 410:Generated_Source\PSoC4/cyfitter_cfg.c **** 			{0x2Au, 0x01u},
 411:Generated_Source\PSoC4/cyfitter_cfg.c **** 			{0x2Fu, 0x14u},
 412:Generated_Source\PSoC4/cyfitter_cfg.c **** 			{0x31u, 0x02u},
 413:Generated_Source\PSoC4/cyfitter_cfg.c **** 			{0x33u, 0x04u},
 414:Generated_Source\PSoC4/cyfitter_cfg.c **** 			{0x36u, 0x02u},
 415:Generated_Source\PSoC4/cyfitter_cfg.c **** 			{0x37u, 0x10u},
 416:Generated_Source\PSoC4/cyfitter_cfg.c **** 			{0x3Au, 0x80u},
 417:Generated_Source\PSoC4/cyfitter_cfg.c **** 			{0x3Fu, 0x80u},
 418:Generated_Source\PSoC4/cyfitter_cfg.c **** 			{0x40u, 0x04u},
 419:Generated_Source\PSoC4/cyfitter_cfg.c **** 			{0x42u, 0x40u},
 420:Generated_Source\PSoC4/cyfitter_cfg.c **** 			{0x45u, 0x48u},
ARM GAS  C:\Users\mac_000\AppData\Local\Temp\ccO0OvQ6.s 			page 13


 421:Generated_Source\PSoC4/cyfitter_cfg.c **** 			{0x48u, 0x02u},
 422:Generated_Source\PSoC4/cyfitter_cfg.c **** 			{0x49u, 0x05u},
 423:Generated_Source\PSoC4/cyfitter_cfg.c **** 			{0x4Du, 0x04u},
 424:Generated_Source\PSoC4/cyfitter_cfg.c **** 			{0x4Fu, 0x81u},
 425:Generated_Source\PSoC4/cyfitter_cfg.c **** 			{0x50u, 0x02u},
 426:Generated_Source\PSoC4/cyfitter_cfg.c **** 			{0x52u, 0x01u},
 427:Generated_Source\PSoC4/cyfitter_cfg.c **** 			{0x56u, 0x40u},
 428:Generated_Source\PSoC4/cyfitter_cfg.c **** 			{0x57u, 0x40u},
 429:Generated_Source\PSoC4/cyfitter_cfg.c **** 			{0x59u, 0x05u},
 430:Generated_Source\PSoC4/cyfitter_cfg.c **** 			{0x5Au, 0xA0u},
 431:Generated_Source\PSoC4/cyfitter_cfg.c **** 			{0x5Du, 0x04u},
 432:Generated_Source\PSoC4/cyfitter_cfg.c **** 			{0x5Eu, 0x80u},
 433:Generated_Source\PSoC4/cyfitter_cfg.c **** 			{0x5Fu, 0x01u},
 434:Generated_Source\PSoC4/cyfitter_cfg.c **** 			{0x72u, 0xC0u},
 435:Generated_Source\PSoC4/cyfitter_cfg.c **** 			{0x77u, 0x40u},
 436:Generated_Source\PSoC4/cyfitter_cfg.c **** 			{0x7Du, 0x80u},
 437:Generated_Source\PSoC4/cyfitter_cfg.c **** 			{0x7Eu, 0x02u},
 438:Generated_Source\PSoC4/cyfitter_cfg.c **** 			{0x82u, 0x08u},
 439:Generated_Source\PSoC4/cyfitter_cfg.c **** 			{0xC0u, 0x30u},
 440:Generated_Source\PSoC4/cyfitter_cfg.c **** 			{0xC2u, 0x60u},
 441:Generated_Source\PSoC4/cyfitter_cfg.c **** 			{0xC4u, 0x30u},
 442:Generated_Source\PSoC4/cyfitter_cfg.c **** 			{0xCAu, 0x61u},
 443:Generated_Source\PSoC4/cyfitter_cfg.c **** 			{0xCCu, 0xA3u},
 444:Generated_Source\PSoC4/cyfitter_cfg.c **** 			{0xCEu, 0x18u},
 445:Generated_Source\PSoC4/cyfitter_cfg.c **** 			{0xD0u, 0x55u},
 446:Generated_Source\PSoC4/cyfitter_cfg.c **** 			{0xD2u, 0x18u},
 447:Generated_Source\PSoC4/cyfitter_cfg.c **** 			{0xD6u, 0xDFu},
 448:Generated_Source\PSoC4/cyfitter_cfg.c **** 			{0xDEu, 0x10u},
 449:Generated_Source\PSoC4/cyfitter_cfg.c **** 			{0xB6u, 0x02u},
 450:Generated_Source\PSoC4/cyfitter_cfg.c **** 			{0xB7u, 0x04u},
 451:Generated_Source\PSoC4/cyfitter_cfg.c **** 			{0x6Cu, 0x02u},
 452:Generated_Source\PSoC4/cyfitter_cfg.c **** 			{0x80u, 0x02u},
 453:Generated_Source\PSoC4/cyfitter_cfg.c **** 			{0xDAu, 0x80u},
 454:Generated_Source\PSoC4/cyfitter_cfg.c **** 			{0xE2u, 0x20u},
 455:Generated_Source\PSoC4/cyfitter_cfg.c **** 			{0x0Du, 0x02u},
 456:Generated_Source\PSoC4/cyfitter_cfg.c **** 			{0xC2u, 0x04u},
 457:Generated_Source\PSoC4/cyfitter_cfg.c **** 			{0xB5u, 0x02u},
 458:Generated_Source\PSoC4/cyfitter_cfg.c **** 			{0xEEu, 0x08u},
 459:Generated_Source\PSoC4/cyfitter_cfg.c **** 			{0x01u, 0x0Au},
 460:Generated_Source\PSoC4/cyfitter_cfg.c **** 			{0x10u, 0x0Au},
 461:Generated_Source\PSoC4/cyfitter_cfg.c **** 		};
 462:Generated_Source\PSoC4/cyfitter_cfg.c **** 
 463:Generated_Source\PSoC4/cyfitter_cfg.c **** 
 464:Generated_Source\PSoC4/cyfitter_cfg.c **** 
 465:Generated_Source\PSoC4/cyfitter_cfg.c **** 		CYPACKED typedef struct {
 466:Generated_Source\PSoC4/cyfitter_cfg.c **** 			void CYFAR *address;
 467:Generated_Source\PSoC4/cyfitter_cfg.c **** 			uint16 size;
 468:Generated_Source\PSoC4/cyfitter_cfg.c **** 		} CYPACKED_ATTR cfg_memset_t;
 469:Generated_Source\PSoC4/cyfitter_cfg.c **** 
 470:Generated_Source\PSoC4/cyfitter_cfg.c **** 		static const cfg_memset_t CYCODE cfg_memset_list[] = {
 471:Generated_Source\PSoC4/cyfitter_cfg.c **** 			/* address, size */
 472:Generated_Source\PSoC4/cyfitter_cfg.c **** 			{(void CYFAR *)(CYDEV_UDB_P0_U0_BASE), 1024u},
 473:Generated_Source\PSoC4/cyfitter_cfg.c **** 			{(void CYFAR *)(CYDEV_UDB_DSI0_BASE), 1024u},
 474:Generated_Source\PSoC4/cyfitter_cfg.c **** 		};
 475:Generated_Source\PSoC4/cyfitter_cfg.c **** 
 476:Generated_Source\PSoC4/cyfitter_cfg.c **** 		uint8 CYDATA i;
 477:Generated_Source\PSoC4/cyfitter_cfg.c **** 
ARM GAS  C:\Users\mac_000\AppData\Local\Temp\ccO0OvQ6.s 			page 14


 478:Generated_Source\PSoC4/cyfitter_cfg.c **** 		/* Zero out critical memory blocks before beginning configuration */
 479:Generated_Source\PSoC4/cyfitter_cfg.c **** 		for (i = 0u; i < (sizeof(cfg_memset_list)/sizeof(cfg_memset_list[0])); i++)
 259              		.loc 1 479 0
 260 00b2 0024     		movs	r4, #0
 261 00b4 0FE0     		b	.L11
 262              	.LVL19:
 263              	.L12:
 264              	.LBB4:
 480:Generated_Source\PSoC4/cyfitter_cfg.c **** 		{
 481:Generated_Source\PSoC4/cyfitter_cfg.c **** 			const cfg_memset_t CYCODE * CYDATA ms = &cfg_memset_list[i];
 482:Generated_Source\PSoC4/cyfitter_cfg.c **** 			CYMEMZERO(ms->address, (size_t)(uint32)(ms->size));
 265              		.loc 1 482 0 discriminator 3
 266 00b6 2748     		ldr	r0, .L13+4
 267 00b8 6200     		lsls	r2, r4, #1
 268 00ba 1319     		adds	r3, r2, r4
 269 00bc 5900     		lsls	r1, r3, #1
 270 00be 0B00     		movs	r3, r1
 271 00c0 4118     		adds	r1, r0, r1
 272 00c2 8988     		ldrh	r1, [r1, #4]
 273 00c4 1A5A     		ldrh	r2, [r3, r0]
 274 00c6 C318     		adds	r3, r0, r3
 275 00c8 5888     		ldrh	r0, [r3, #2]
 276 00ca 0004     		lsls	r0, r0, #16
 277 00cc 1043     		orrs	r0, r2
 278 00ce FFF7FEFF 		bl	CYMEMZERO
 279              	.LVL20:
 280              	.LBE4:
 479:Generated_Source\PSoC4/cyfitter_cfg.c **** 		{
 281              		.loc 1 479 0 discriminator 3
 282 00d2 0134     		adds	r4, r4, #1
 283              	.LVL21:
 284 00d4 E4B2     		uxtb	r4, r4
 285              	.LVL22:
 286              	.L11:
 479:Generated_Source\PSoC4/cyfitter_cfg.c **** 		{
 287              		.loc 1 479 0 is_stmt 0 discriminator 1
 288 00d6 012C     		cmp	r4, #1
 289 00d8 EDD9     		bls	.L12
 483:Generated_Source\PSoC4/cyfitter_cfg.c **** 		}
 484:Generated_Source\PSoC4/cyfitter_cfg.c **** 
 485:Generated_Source\PSoC4/cyfitter_cfg.c **** 		cfg_write_bytes32(cy_cfg_addr_table, cy_cfg_data_table);
 290              		.loc 1 485 0 is_stmt 1
 291 00da 1E49     		ldr	r1, .L13+4
 292 00dc 0C31     		adds	r1, r1, #12
 293 00de 1E48     		ldr	r0, .L13+8
 294 00e0 3430     		adds	r0, r0, #52
 295 00e2 FFF7FEFF 		bl	cfg_write_bytes32
 296              	.LVL23:
 486:Generated_Source\PSoC4/cyfitter_cfg.c **** 
 487:Generated_Source\PSoC4/cyfitter_cfg.c **** 		/* HSIOM Starting address: CYDEV_HSIOM_BASE */
 488:Generated_Source\PSoC4/cyfitter_cfg.c **** 		CY_SET_REG32((void *)(CYREG_HSIOM_PORT_SEL3), 0x0000EE00u);
 297              		.loc 1 488 0
 298 00e6 EE22     		movs	r2, #238
 299 00e8 1202     		lsls	r2, r2, #8
 300 00ea 1C4B     		ldr	r3, .L13+12
 301 00ec 1A60     		str	r2, [r3]
 489:Generated_Source\PSoC4/cyfitter_cfg.c **** 		CY_SET_REG32((void *)(CYREG_HSIOM_PORT_SEL4), 0x00000099u);
ARM GAS  C:\Users\mac_000\AppData\Local\Temp\ccO0OvQ6.s 			page 15


 302              		.loc 1 489 0
 303 00ee 9922     		movs	r2, #153
 304 00f0 1B4B     		ldr	r3, .L13+16
 305 00f2 1A60     		str	r2, [r3]
 490:Generated_Source\PSoC4/cyfitter_cfg.c **** 
 491:Generated_Source\PSoC4/cyfitter_cfg.c **** 		/* UDB_PA_2 Starting address: CYDEV_UDB_PA2_BASE */
 492:Generated_Source\PSoC4/cyfitter_cfg.c **** 		CY_SET_REG32((void *)(CYDEV_UDB_PA2_BASE), 0x00990000u);
 306              		.loc 1 492 0
 307 00f4 9923     		movs	r3, #153
 308 00f6 1B04     		lsls	r3, r3, #16
 309 00f8 1A4A     		ldr	r2, .L13+20
 310 00fa 1360     		str	r3, [r2]
 493:Generated_Source\PSoC4/cyfitter_cfg.c **** 
 494:Generated_Source\PSoC4/cyfitter_cfg.c **** 		/* UDB_PA_3 Starting address: CYDEV_UDB_PA3_BASE */
 495:Generated_Source\PSoC4/cyfitter_cfg.c **** 		CY_SET_REG32((void *)(CYDEV_UDB_PA3_BASE), 0x00990000u);
 311              		.loc 1 495 0
 312 00fc 1A4A     		ldr	r2, .L13+24
 313 00fe 1360     		str	r3, [r2]
 496:Generated_Source\PSoC4/cyfitter_cfg.c **** 
 497:Generated_Source\PSoC4/cyfitter_cfg.c **** 		/* INT_SELECT Starting address: CYDEV_CPUSS_INTR_SELECT */
 498:Generated_Source\PSoC4/cyfitter_cfg.c **** 		CY_SET_REG32((void *)(CYREG_CPUSS_INTR_SELECT), 0x00000001u);
 314              		.loc 1 498 0
 315 0100 0122     		movs	r2, #1
 316 0102 1A4B     		ldr	r3, .L13+28
 317 0104 1A60     		str	r2, [r3]
 499:Generated_Source\PSoC4/cyfitter_cfg.c **** 
 500:Generated_Source\PSoC4/cyfitter_cfg.c **** 		/* INT_CONFIG Starting address: CYDEV_UDB_INT_CFG */
 501:Generated_Source\PSoC4/cyfitter_cfg.c **** 		CY_SET_REG32((void *)(CYREG_UDB_INT_CFG), 0x00000002u);
 318              		.loc 1 501 0
 319 0106 0221     		movs	r1, #2
 320 0108 194B     		ldr	r3, .L13+32
 321 010a 1960     		str	r1, [r3]
 502:Generated_Source\PSoC4/cyfitter_cfg.c **** 
 503:Generated_Source\PSoC4/cyfitter_cfg.c **** 		/* Enable UDB array and digital routing */
 504:Generated_Source\PSoC4/cyfitter_cfg.c **** 		CY_SET_XTND_REG8((void *)CYREG_UDB_UDBIF_WAIT_CFG, (uint8)((CY_GET_XTND_REG8((void *)CYREG_UDB_UD
 322              		.loc 1 504 0
 323 010c 1948     		ldr	r0, .L13+36
 324 010e 0378     		ldrb	r3, [r0]
 325 0110 3B32     		adds	r2, r2, #59
 326 0112 9343     		bics	r3, r2
 327 0114 1422     		movs	r2, #20
 328 0116 1343     		orrs	r3, r2
 329 0118 DBB2     		uxtb	r3, r3
 330 011a 0370     		strb	r3, [r0]
 505:Generated_Source\PSoC4/cyfitter_cfg.c **** 		CY_SET_XTND_REG8((void *)CYREG_UDB_UDBIF_BANK_CTL, (uint8)(CY_GET_XTND_REG8((void *)CYREG_UDB_UDB
 331              		.loc 1 505 0
 332 011c 164A     		ldr	r2, .L13+40
 333 011e 1078     		ldrb	r0, [r2]
 334 0120 1623     		movs	r3, #22
 335 0122 0343     		orrs	r3, r0
 336 0124 DBB2     		uxtb	r3, r3
 337 0126 1370     		strb	r3, [r2]
 338              	.LBE3:
 506:Generated_Source\PSoC4/cyfitter_cfg.c **** 	}
 507:Generated_Source\PSoC4/cyfitter_cfg.c **** 
 508:Generated_Source\PSoC4/cyfitter_cfg.c **** 	/* Perform second pass device configuration. These items must be configured in specific order afte
 509:Generated_Source\PSoC4/cyfitter_cfg.c **** 	/* IOPINS0_2 Starting address: CYDEV_PRT2_BASE */
ARM GAS  C:\Users\mac_000\AppData\Local\Temp\ccO0OvQ6.s 			page 16


 510:Generated_Source\PSoC4/cyfitter_cfg.c **** 	CY_SET_REG32((void *)(CYDEV_PRT2_BASE), 0x000000F0u);
 339              		.loc 1 510 0
 340 0128 F022     		movs	r2, #240
 341 012a 144B     		ldr	r3, .L13+44
 342 012c 1A60     		str	r2, [r3]
 511:Generated_Source\PSoC4/cyfitter_cfg.c **** 	CY_SET_REG32((void *)(CYREG_PRT2_PC), 0x00496DB6u);
 343              		.loc 1 511 0
 344 012e 144A     		ldr	r2, .L13+48
 345 0130 144B     		ldr	r3, .L13+52
 346 0132 1A60     		str	r2, [r3]
 512:Generated_Source\PSoC4/cyfitter_cfg.c **** 
 513:Generated_Source\PSoC4/cyfitter_cfg.c **** 	/* IOPINS0_3 Starting address: CYDEV_PRT3_BASE */
 514:Generated_Source\PSoC4/cyfitter_cfg.c **** 	CY_SET_REG32((void *)(CYREG_PRT3_PC), 0x00000D80u);
 347              		.loc 1 514 0
 348 0134 D822     		movs	r2, #216
 349 0136 1201     		lsls	r2, r2, #4
 350 0138 134B     		ldr	r3, .L13+56
 351 013a 1A60     		str	r2, [r3]
 515:Generated_Source\PSoC4/cyfitter_cfg.c **** 
 516:Generated_Source\PSoC4/cyfitter_cfg.c **** 	/* IOPINS0_4 Starting address: CYDEV_PRT4_BASE */
 517:Generated_Source\PSoC4/cyfitter_cfg.c **** 	CY_SET_REG32((void *)(CYDEV_PRT4_BASE), 0x00000002u);
 352              		.loc 1 517 0
 353 013c 134B     		ldr	r3, .L13+60
 354 013e 1960     		str	r1, [r3]
 518:Generated_Source\PSoC4/cyfitter_cfg.c **** 	CY_SET_REG32((void *)(CYREG_PRT4_PC), 0x00000031u);
 355              		.loc 1 518 0
 356 0140 3122     		movs	r2, #49
 357 0142 134B     		ldr	r3, .L13+64
 358 0144 1A60     		str	r2, [r3]
 519:Generated_Source\PSoC4/cyfitter_cfg.c **** 	CY_SET_REG32((void *)(CYREG_PRT4_PC2), 0x00000002u);
 359              		.loc 1 519 0
 360 0146 134B     		ldr	r3, .L13+68
 361 0148 1960     		str	r1, [r3]
 520:Generated_Source\PSoC4/cyfitter_cfg.c **** 
 521:Generated_Source\PSoC4/cyfitter_cfg.c **** 
 522:Generated_Source\PSoC4/cyfitter_cfg.c **** 	/* Setup clocks based on selections from Clock DWR */
 523:Generated_Source\PSoC4/cyfitter_cfg.c **** 	ClockSetup();
 362              		.loc 1 523 0
 363 014a FFF759FF 		bl	ClockSetup
 364              	.LVL24:
 524:Generated_Source\PSoC4/cyfitter_cfg.c **** 
 525:Generated_Source\PSoC4/cyfitter_cfg.c **** 	/* Perform basic analog initialization to defaults */
 526:Generated_Source\PSoC4/cyfitter_cfg.c **** 	AnalogSetDefault();
 527:Generated_Source\PSoC4/cyfitter_cfg.c **** 
 528:Generated_Source\PSoC4/cyfitter_cfg.c **** }
 365              		.loc 1 528 0
 366              		@ sp needed
 367              	.LVL25:
 368 014e 10BD     		pop	{r4, pc}
 369              	.L14:
 370              		.align	2
 371              	.L13:
 372 0150 1C700F40 		.word	1074753564
 373 0154 00000000 		.word	.LANCHOR0
 374 0158 00010000 		.word	.LANCHOR1
 375 015c 0C000140 		.word	1073807372
 376 0160 10000140 		.word	1073807376
ARM GAS  C:\Users\mac_000\AppData\Local\Temp\ccO0OvQ6.s 			page 17


 377 0164 20500F40 		.word	1074745376
 378 0168 30500F40 		.word	1074745392
 379 016c 20000040 		.word	1073741856
 380 0170 00800F40 		.word	1074757632
 381 0174 01700F40 		.word	1074753537
 382 0178 00700F40 		.word	1074753536
 383 017c 00020440 		.word	1074004480
 384 0180 B66D4900 		.word	4812214
 385 0184 08020440 		.word	1074004488
 386 0188 08030440 		.word	1074004744
 387 018c 00040440 		.word	1074004992
 388 0190 08040440 		.word	1074005000
 389 0194 18040440 		.word	1074005016
 390              		.cfi_endproc
 391              	.LFE6:
 392              		.size	cyfitter_cfg, .-cyfitter_cfg
 393              		.section	.rodata
 394              		.align	2
 395              		.set	.LANCHOR0,. + 0
 396              		.set	.LANCHOR1,. + 256
 397              		.type	cfg_memset_list.4870, %object
 398              		.size	cfg_memset_list.4870, 12
 399              	cfg_memset_list.4870:
 400 0000 00300F40 		.word	1074737152
 401 0004 0004     		.short	1024
 402 0006 00400F40 		.4byte	1074741248
 403 000a 0004     		.short	1024
 404              		.type	cy_cfg_data_table.4865, %object
 405              		.size	cy_cfg_data_table.4865, 294
 406              	cy_cfg_data_table.4865:
 407 000c 80       		.byte	-128
 408 000d 0F       		.byte	15
 409 000e 81       		.byte	-127
 410 000f 0D       		.byte	13
 411 0010 0F       		.byte	15
 412 0011 05       		.byte	5
 413 0012 13       		.byte	19
 414 0013 01       		.byte	1
 415 0014 15       		.byte	21
 416 0015 01       		.byte	1
 417 0016 17       		.byte	23
 418 0017 02       		.byte	2
 419 0018 23       		.byte	35
 420 0019 04       		.byte	4
 421 001a 31       		.byte	49
 422 001b 02       		.byte	2
 423 001c 33       		.byte	51
 424 001d 01       		.byte	1
 425 001e 35       		.byte	53
 426 001f 01       		.byte	1
 427 0020 37       		.byte	55
 428 0021 04       		.byte	4
 429 0022 3F       		.byte	63
 430 0023 50       		.byte	80
 431 0024 40       		.byte	64
 432 0025 45       		.byte	69
 433 0026 42       		.byte	66
ARM GAS  C:\Users\mac_000\AppData\Local\Temp\ccO0OvQ6.s 			page 18


 434 0027 02       		.byte	2
 435 0028 45       		.byte	69
 436 0029 EC       		.byte	-20
 437 002a 47       		.byte	71
 438 002b 20       		.byte	32
 439 002c 48       		.byte	72
 440 002d 23       		.byte	35
 441 002e 49       		.byte	73
 442 002f FF       		.byte	-1
 443 0030 4A       		.byte	74
 444 0031 FF       		.byte	-1
 445 0032 4B       		.byte	75
 446 0033 FF       		.byte	-1
 447 0034 4F       		.byte	79
 448 0035 01       		.byte	1
 449 0036 50       		.byte	80
 450 0037 18       		.byte	24
 451 0038 52       		.byte	82
 452 0039 80       		.byte	-128
 453 003a 54       		.byte	84
 454 003b 03       		.byte	3
 455 003c 59       		.byte	89
 456 003d 04       		.byte	4
 457 003e 5A       		.byte	90
 458 003f 04       		.byte	4
 459 0040 5B       		.byte	91
 460 0041 04       		.byte	4
 461 0042 5C       		.byte	92
 462 0043 10       		.byte	16
 463 0044 5D       		.byte	93
 464 0045 11       		.byte	17
 465 0046 5F       		.byte	95
 466 0047 01       		.byte	1
 467 0048 60       		.byte	96
 468 0049 40       		.byte	64
 469 004a 62       		.byte	98
 470 004b 40       		.byte	64
 471 004c 64       		.byte	100
 472 004d 40       		.byte	64
 473 004e 65       		.byte	101
 474 004f 40       		.byte	64
 475 0050 66       		.byte	102
 476 0051 80       		.byte	-128
 477 0052 68       		.byte	104
 478 0053 80       		.byte	-128
 479 0054 6A       		.byte	106
 480 0055 80       		.byte	-128
 481 0056 6C       		.byte	108
 482 0057 80       		.byte	-128
 483 0058 6E       		.byte	110
 484 0059 80       		.byte	-128
 485 005a 82       		.byte	-126
 486 005b 0F       		.byte	15
 487 005c 84       		.byte	-124
 488 005d 07       		.byte	7
 489 005e 8F       		.byte	-113
 490 005f 05       		.byte	5
ARM GAS  C:\Users\mac_000\AppData\Local\Temp\ccO0OvQ6.s 			page 19


 491 0060 91       		.byte	-111
 492 0061 03       		.byte	3
 493 0062 94       		.byte	-108
 494 0063 01       		.byte	1
 495 0064 98       		.byte	-104
 496 0065 02       		.byte	2
 497 0066 9B       		.byte	-101
 498 0067 02       		.byte	2
 499 0068 A0       		.byte	-96
 500 0069 04       		.byte	4
 501 006a A4       		.byte	-92
 502 006b 07       		.byte	7
 503 006c A7       		.byte	-89
 504 006d 05       		.byte	5
 505 006e AB       		.byte	-85
 506 006f 01       		.byte	1
 507 0070 B2       		.byte	-78
 508 0071 07       		.byte	7
 509 0072 B3       		.byte	-77
 510 0073 03       		.byte	3
 511 0074 B4       		.byte	-76
 512 0075 08       		.byte	8
 513 0076 B7       		.byte	-73
 514 0077 04       		.byte	4
 515 0078 BF       		.byte	-65
 516 0079 40       		.byte	64
 517 007a C0       		.byte	-64
 518 007b 35       		.byte	53
 519 007c C1       		.byte	-63
 520 007d 01       		.byte	1
 521 007e C5       		.byte	-59
 522 007f EC       		.byte	-20
 523 0080 C6       		.byte	-58
 524 0081 02       		.byte	2
 525 0082 C8       		.byte	-56
 526 0083 07       		.byte	7
 527 0084 C9       		.byte	-55
 528 0085 FF       		.byte	-1
 529 0086 CA       		.byte	-54
 530 0087 FF       		.byte	-1
 531 0088 CB       		.byte	-53
 532 0089 FF       		.byte	-1
 533 008a CF       		.byte	-49
 534 008b 01       		.byte	1
 535 008c D0       		.byte	-48
 536 008d 18       		.byte	24
 537 008e D2       		.byte	-46
 538 008f 80       		.byte	-128
 539 0090 D4       		.byte	-44
 540 0091 01       		.byte	1
 541 0092 D8       		.byte	-40
 542 0093 04       		.byte	4
 543 0094 D9       		.byte	-39
 544 0095 04       		.byte	4
 545 0096 DA       		.byte	-38
 546 0097 04       		.byte	4
 547 0098 DB       		.byte	-37
ARM GAS  C:\Users\mac_000\AppData\Local\Temp\ccO0OvQ6.s 			page 20


 548 0099 04       		.byte	4
 549 009a DC       		.byte	-36
 550 009b 33       		.byte	51
 551 009c DD       		.byte	-35
 552 009d 33       		.byte	51
 553 009e DF       		.byte	-33
 554 009f 05       		.byte	5
 555 00a0 E0       		.byte	-32
 556 00a1 40       		.byte	64
 557 00a2 E2       		.byte	-30
 558 00a3 40       		.byte	64
 559 00a4 E4       		.byte	-28
 560 00a5 40       		.byte	64
 561 00a6 E5       		.byte	-27
 562 00a7 40       		.byte	64
 563 00a8 E6       		.byte	-26
 564 00a9 80       		.byte	-128
 565 00aa E8       		.byte	-24
 566 00ab 80       		.byte	-128
 567 00ac EA       		.byte	-22
 568 00ad 80       		.byte	-128
 569 00ae EC       		.byte	-20
 570 00af 80       		.byte	-128
 571 00b0 EE       		.byte	-18
 572 00b1 80       		.byte	-128
 573 00b2 07       		.byte	7
 574 00b3 50       		.byte	80
 575 00b4 0D       		.byte	13
 576 00b5 08       		.byte	8
 577 00b6 0E       		.byte	14
 578 00b7 04       		.byte	4
 579 00b8 16       		.byte	22
 580 00b9 40       		.byte	64
 581 00ba 17       		.byte	23
 582 00bb 04       		.byte	4
 583 00bc 1D       		.byte	29
 584 00bd 08       		.byte	8
 585 00be 1E       		.byte	30
 586 00bf 04       		.byte	4
 587 00c0 1F       		.byte	31
 588 00c1 14       		.byte	20
 589 00c2 20       		.byte	32
 590 00c3 04       		.byte	4
 591 00c4 21       		.byte	33
 592 00c5 02       		.byte	2
 593 00c6 22       		.byte	34
 594 00c7 58       		.byte	88
 595 00c8 26       		.byte	38
 596 00c9 40       		.byte	64
 597 00ca 27       		.byte	39
 598 00cb 10       		.byte	16
 599 00cc 2A       		.byte	42
 600 00cd 01       		.byte	1
 601 00ce 2F       		.byte	47
 602 00cf 14       		.byte	20
 603 00d0 31       		.byte	49
 604 00d1 02       		.byte	2
ARM GAS  C:\Users\mac_000\AppData\Local\Temp\ccO0OvQ6.s 			page 21


 605 00d2 33       		.byte	51
 606 00d3 04       		.byte	4
 607 00d4 36       		.byte	54
 608 00d5 02       		.byte	2
 609 00d6 37       		.byte	55
 610 00d7 10       		.byte	16
 611 00d8 3A       		.byte	58
 612 00d9 80       		.byte	-128
 613 00da 3F       		.byte	63
 614 00db 80       		.byte	-128
 615 00dc 40       		.byte	64
 616 00dd 04       		.byte	4
 617 00de 42       		.byte	66
 618 00df 40       		.byte	64
 619 00e0 45       		.byte	69
 620 00e1 48       		.byte	72
 621 00e2 48       		.byte	72
 622 00e3 02       		.byte	2
 623 00e4 49       		.byte	73
 624 00e5 05       		.byte	5
 625 00e6 4D       		.byte	77
 626 00e7 04       		.byte	4
 627 00e8 4F       		.byte	79
 628 00e9 81       		.byte	-127
 629 00ea 50       		.byte	80
 630 00eb 02       		.byte	2
 631 00ec 52       		.byte	82
 632 00ed 01       		.byte	1
 633 00ee 56       		.byte	86
 634 00ef 40       		.byte	64
 635 00f0 57       		.byte	87
 636 00f1 40       		.byte	64
 637 00f2 59       		.byte	89
 638 00f3 05       		.byte	5
 639 00f4 5A       		.byte	90
 640 00f5 A0       		.byte	-96
 641 00f6 5D       		.byte	93
 642 00f7 04       		.byte	4
 643 00f8 5E       		.byte	94
 644 00f9 80       		.byte	-128
 645 00fa 5F       		.byte	95
 646 00fb 01       		.byte	1
 647 00fc 72       		.byte	114
 648 00fd C0       		.byte	-64
 649 00fe 77       		.byte	119
 650 00ff 40       		.byte	64
 651 0100 7D       		.byte	125
 652 0101 80       		.byte	-128
 653 0102 7E       		.byte	126
 654 0103 02       		.byte	2
 655 0104 82       		.byte	-126
 656 0105 08       		.byte	8
 657 0106 C0       		.byte	-64
 658 0107 30       		.byte	48
 659 0108 C2       		.byte	-62
 660 0109 60       		.byte	96
 661 010a C4       		.byte	-60
ARM GAS  C:\Users\mac_000\AppData\Local\Temp\ccO0OvQ6.s 			page 22


 662 010b 30       		.byte	48
 663 010c CA       		.byte	-54
 664 010d 61       		.byte	97
 665 010e CC       		.byte	-52
 666 010f A3       		.byte	-93
 667 0110 CE       		.byte	-50
 668 0111 18       		.byte	24
 669 0112 D0       		.byte	-48
 670 0113 55       		.byte	85
 671 0114 D2       		.byte	-46
 672 0115 18       		.byte	24
 673 0116 D6       		.byte	-42
 674 0117 DF       		.byte	-33
 675 0118 DE       		.byte	-34
 676 0119 10       		.byte	16
 677 011a B6       		.byte	-74
 678 011b 02       		.byte	2
 679 011c B7       		.byte	-73
 680 011d 04       		.byte	4
 681 011e 6C       		.byte	108
 682 011f 02       		.byte	2
 683 0120 80       		.byte	-128
 684 0121 02       		.byte	2
 685 0122 DA       		.byte	-38
 686 0123 80       		.byte	-128
 687 0124 E2       		.byte	-30
 688 0125 20       		.byte	32
 689 0126 0D       		.byte	13
 690 0127 02       		.byte	2
 691 0128 C2       		.byte	-62
 692 0129 04       		.byte	4
 693 012a B5       		.byte	-75
 694 012b 02       		.byte	2
 695 012c EE       		.byte	-18
 696 012d 08       		.byte	8
 697 012e 01       		.byte	1
 698 012f 0A       		.byte	10
 699 0130 10       		.byte	16
 700 0131 0A       		.byte	10
 701 0132 0000     		.space	2
 702              		.type	cy_cfg_addr_table.4864, %object
 703              		.size	cy_cfg_addr_table.4864, 32
 704              	cy_cfg_addr_table.4864:
 705 0134 02000F40 		.word	1074724866
 706 0138 51300F40 		.word	1074737233
 707 013c 34310F40 		.word	1074737460
 708 0140 02330F40 		.word	1074737922
 709 0144 04400F40 		.word	1074741252
 710 0148 02420F40 		.word	1074741762
 711 014c 02430F40 		.word	1074742018
 712 0150 02600F40 		.word	1074749442
 713              		.text
 714              	.Letext0:
 715              		.file 2 "c:\\program files (x86)\\cypress\\psoc creator\\4.3\\psoc creator\\import\\gnu\\arm\\5.4.
 716              		.file 3 "Generated_Source\\PSoC4\\cytypes.h"
 717              		.file 4 "Generated_Source\\PSoC4\\CyLib.h"