ARM GAS  C:\Users\mac_000\AppData\Local\Temp\ccOOuQT3.s 			page 1


   1              		.syntax unified
   2              		.cpu cortex-m0
   3              		.fpu softvfp
   4              		.eabi_attribute 20, 1
   5              		.eabi_attribute 21, 1
   6              		.eabi_attribute 23, 3
   7              		.eabi_attribute 24, 1
   8              		.eabi_attribute 25, 1
   9              		.eabi_attribute 26, 1
  10              		.eabi_attribute 30, 1
  11              		.eabi_attribute 34, 0
  12              		.eabi_attribute 18, 4
  13              		.thumb
  14              		.syntax unified
  15              		.file	"main.c"
  16              		.text
  17              	.Ltext0:
  18              		.cfi_sections	.debug_frame
  19              		.section	.text.do_capture,"ax",%progbits
  20              		.align	2
  21              		.global	do_capture
  22              		.code	16
  23              		.thumb_func
  24              		.type	do_capture, %function
  25              	do_capture:
  26              	.LFB33:
  27              		.file 1 "main.c"
   1:main.c        **** /* ========================================
   2:main.c        ****  *
   3:main.c        ****  * Copyright AGRI-HITECH LLC, 2020
   4:main.c        ****  * All Rights Reserved
   5:main.c        ****  * UNPUBLISHED, LICENSED SOFTWARE.
   6:main.c        ****  * ========================================
   7:main.c        ****  * Program & Coded by fanfan (mac@line.to)
   8:main.c        **** */
   9:main.c        **** #include "project.h"
  10:main.c        **** #include <stdio.h>
  11:main.c        **** 
  12:main.c        **** #define T1Period 255u
  13:main.c        **** #define CodeL 34
  14:main.c        **** 
  15:main.c        **** enum { FR = 1, FL = 2, BR = 4, BL = 8} M_Stat;
  16:main.c        **** 
  17:main.c        **** const struct KEY {
  18:main.c        ****     short code; char motor; } key[] = {
  19:main.c        ****         {0x10b1,(FL)},
  20:main.c        ****         {0x10a0,(FR|FL)},
  21:main.c        ****         {0x1021,(FR)},
  22:main.c        ****         {0x1010,(FL|BR)},
  23:main.c        ****         {0x1020,0},
  24:main.c        ****         {0x1080,(BL|FR)},
  25:main.c        ****         {0x1011,(BL)},
  26:main.c        ****         {0x1000,(BL|BR)},
  27:main.c        ****         {0x1081,(BR)},
  28:main.c        ****         {0,0}
  29:main.c        ****     };
  30:main.c        **** static short Capture[100];
ARM GAS  C:\Users\mac_000\AppData\Local\Temp\ccOOuQT3.s 			page 2


  31:main.c        **** static int NCapture = 0;
  32:main.c        **** 
  33:main.c        **** CY_ISR(do_capture) {
  28              		.loc 1 33 0
  29              		.cfi_startproc
  30              		@ args = 0, pretend = 0, frame = 0
  31              		@ frame_needed = 0, uses_anonymous_args = 0
  32 0000 70B5     		push	{r4, r5, r6, lr}
  33              		.cfi_def_cfa_offset 16
  34              		.cfi_offset 4, -16
  35              		.cfi_offset 5, -12
  36              		.cfi_offset 6, -8
  37              		.cfi_offset 14, -4
  34:main.c        ****     Timer1_STATUS;
  38              		.loc 1 34 0
  39 0002 064B     		ldr	r3, .L2
  40 0004 1B78     		ldrb	r3, [r3]
  35:main.c        ****     Capture[NCapture++] = Timer1_ReadCapture();
  41              		.loc 1 35 0
  42 0006 064D     		ldr	r5, .L2+4
  43 0008 2C68     		ldr	r4, [r5]
  44 000a 631C     		adds	r3, r4, #1
  45 000c 2B60     		str	r3, [r5]
  46 000e FFF7FEFF 		bl	Timer1_ReadCapture
  47              	.LVL0:
  48 0012 6400     		lsls	r4, r4, #1
  49 0014 2C19     		adds	r4, r5, r4
  50 0016 A080     		strh	r0, [r4, #4]
  36:main.c        **** }
  51              		.loc 1 36 0
  52              		@ sp needed
  53 0018 70BD     		pop	{r4, r5, r6, pc}
  54              	.L3:
  55 001a C046     		.align	2
  56              	.L2:
  57 001c 63000F40 		.word	1074724963
  58 0020 00000000 		.word	.LANCHOR0
  59              		.cfi_endproc
  60              	.LFE33:
  61              		.size	do_capture, .-do_capture
  62              		.section	.text.Puts,"ax",%progbits
  63              		.align	2
  64              		.global	Puts
  65              		.code	16
  66              		.thumb_func
  67              		.type	Puts, %function
  68              	Puts:
  69              	.LFB34:
  37:main.c        **** 
  38:main.c        **** 
  39:main.c        **** void Puts(const char *s) {
  70              		.loc 1 39 0
  71              		.cfi_startproc
  72              		@ args = 0, pretend = 0, frame = 0
  73              		@ frame_needed = 0, uses_anonymous_args = 0
  74              	.LVL1:
  75 0000 10B5     		push	{r4, lr}
ARM GAS  C:\Users\mac_000\AppData\Local\Temp\ccOOuQT3.s 			page 3


  76              		.cfi_def_cfa_offset 8
  77              		.cfi_offset 4, -8
  78              		.cfi_offset 14, -4
  40:main.c        ****     UART1_UartPutString(s);
  79              		.loc 1 40 0
  80 0002 FFF7FEFF 		bl	UART1_UartPutString
  81              	.LVL2:
  41:main.c        **** }
  82              		.loc 1 41 0
  83              		@ sp needed
  84 0006 10BD     		pop	{r4, pc}
  85              		.cfi_endproc
  86              	.LFE34:
  87              		.size	Puts, .-Puts
  88              		.section	.text.main,"ax",%progbits
  89              		.align	2
  90              		.global	main
  91              		.code	16
  92              		.thumb_func
  93              		.type	main, %function
  94              	main:
  95              	.LFB35:
  42:main.c        **** 
  43:main.c        **** int main(void)
  44:main.c        **** {
  96              		.loc 1 44 0
  97              		.cfi_startproc
  98              		@ args = 0, pretend = 0, frame = 80
  99              		@ frame_needed = 0, uses_anonymous_args = 0
 100 0000 F0B5     		push	{r4, r5, r6, r7, lr}
 101              		.cfi_def_cfa_offset 20
 102              		.cfi_offset 4, -20
 103              		.cfi_offset 5, -16
 104              		.cfi_offset 6, -12
 105              		.cfi_offset 7, -8
 106              		.cfi_offset 14, -4
 107 0002 95B0     		sub	sp, sp, #84
 108              		.cfi_def_cfa_offset 104
 109              	.LVL3:
  45:main.c        ****     char buf[80];
  46:main.c        ****     unsigned rep, code = 0;
  47:main.c        ****     unsigned char b0, b1, b2, b3;
  48:main.c        ****     
  49:main.c        ****     int i;
  50:main.c        **** 
  51:main.c        ****     UART1_Start();
 110              		.loc 1 51 0
 111 0004 FFF7FEFF 		bl	UART1_Start
 112              	.LVL4:
  52:main.c        ****     Timer1_Start();
 113              		.loc 1 52 0
 114 0008 FFF7FEFF 		bl	Timer1_Start
 115              	.LVL5:
  53:main.c        ****     Timer2_Start();
 116              		.loc 1 53 0
 117 000c FFF7FEFF 		bl	Timer2_Start
 118              	.LVL6:
ARM GAS  C:\Users\mac_000\AppData\Local\Temp\ccOOuQT3.s 			page 4


  54:main.c        ****     
  55:main.c        ****     ISR1_StartEx(do_capture);
 119              		.loc 1 55 0
 120 0010 5748     		ldr	r0, .L27
 121 0012 FFF7FEFF 		bl	ISR1_StartEx
 122              	.LVL7:
  56:main.c        ****     CyGlobalIntEnable;
 123              		.loc 1 56 0
 124              		.syntax divided
 125              	@ 56 "main.c" 1
 126 0016 62B6     		CPSIE   i
 127              	@ 0 "" 2
  46:main.c        ****     unsigned char b0, b1, b2, b3;
 128              		.loc 1 46 0
 129              		.thumb
 130              		.syntax unified
 131 0018 0024     		movs	r4, #0
 132              	.LVL8:
 133              	.L6:
 134              	.LBB2:
  57:main.c        ****     
  58:main.c        ****     for(;;)
  59:main.c        ****     {  
  60:main.c        ****         ISR1_Disable();
 135              		.loc 1 60 0
 136 001a FFF7FEFF 		bl	ISR1_Disable
 137              	.LVL9:
  61:main.c        ****         ISR1_ClearPending();
 138              		.loc 1 61 0
 139 001e FFF7FEFF 		bl	ISR1_ClearPending
 140              	.LVL10:
  62:main.c        ****         Timer2_WriteCounter(255);
 141              		.loc 1 62 0
 142 0022 FF20     		movs	r0, #255
 143 0024 FFF7FEFF 		bl	Timer2_WriteCounter
 144              	.LVL11:
 145              	.L7:
  63:main.c        ****         while (Timer2_ReadCounter() > (255-8));
 146              		.loc 1 63 0 discriminator 1
 147 0028 FFF7FEFF 		bl	Timer2_ReadCounter
 148              	.LVL12:
 149 002c F728     		cmp	r0, #247
 150 002e FBD8     		bhi	.L7
  64:main.c        ****         NCapture=0;
 151              		.loc 1 64 0
 152 0030 0022     		movs	r2, #0
 153 0032 504B     		ldr	r3, .L27+4
 154 0034 1A60     		str	r2, [r3]
  65:main.c        ****         Timer1_ClearFIFO();
 155              		.loc 1 65 0
 156 0036 FFF7FEFF 		bl	Timer1_ClearFIFO
 157              	.LVL13:
  66:main.c        ****         Timer1_Init();
 158              		.loc 1 66 0
 159 003a FFF7FEFF 		bl	Timer1_Init
 160              	.LVL14:
  67:main.c        ****         Timer1_Enable();
ARM GAS  C:\Users\mac_000\AppData\Local\Temp\ccOOuQT3.s 			page 5


 161              		.loc 1 67 0
 162 003e FFF7FEFF 		bl	Timer1_Enable
 163              	.LVL15:
  68:main.c        ****         Timer1_WriteCounter(T1Period);
 164              		.loc 1 68 0
 165 0042 FF20     		movs	r0, #255
 166 0044 FFF7FEFF 		bl	Timer1_WriteCounter
 167              	.LVL16:
  69:main.c        ****         Timer1_WritePeriod(T1Period);        
 168              		.loc 1 69 0
 169 0048 FF20     		movs	r0, #255
 170 004a FFF7FEFF 		bl	Timer1_WritePeriod
 171              	.LVL17:
  70:main.c        ****         LED_Write(1);
 172              		.loc 1 70 0
 173 004e 0120     		movs	r0, #1
 174 0050 FFF7FEFF 		bl	LED_Write
 175              	.LVL18:
  71:main.c        ****         ISR1_Enable();
 176              		.loc 1 71 0
 177 0054 FFF7FEFF 		bl	ISR1_Enable
 178              	.LVL19:
 179              	.L8:
  72:main.c        ****         
  73:main.c        ****         while (Timer1_ReadCounter() > 2);
 180              		.loc 1 73 0 discriminator 1
 181 0058 FFF7FEFF 		bl	Timer1_ReadCounter
 182              	.LVL20:
 183 005c 0228     		cmp	r0, #2
 184 005e FBD8     		bhi	.L8
  74:main.c        ****         LED_Write(0);
 185              		.loc 1 74 0
 186 0060 0020     		movs	r0, #0
 187 0062 FFF7FEFF 		bl	LED_Write
 188              	.LVL21:
  75:main.c        ****         snprintf(buf, 80, "interrupt %d\r\n", NCapture);
 189              		.loc 1 75 0
 190 0066 434B     		ldr	r3, .L27+4
 191 0068 1B68     		ldr	r3, [r3]
 192 006a 434A     		ldr	r2, .L27+8
 193 006c 5021     		movs	r1, #80
 194 006e 6846     		mov	r0, sp
 195 0070 FFF7FEFF 		bl	snprintf
 196              	.LVL22:
  76:main.c        ****         Puts(buf);
 197              		.loc 1 76 0
 198 0074 6846     		mov	r0, sp
 199 0076 FFF7FEFF 		bl	Puts
 200              	.LVL23:
  77:main.c        ****         unsigned L = 0;
 201              		.loc 1 77 0
 202 007a 0023     		movs	r3, #0
  78:main.c        ****         for (i = 1; i < NCapture; i++) {
 203              		.loc 1 78 0
 204 007c 0121     		movs	r1, #1
 205 007e 15E0     		b	.L9
 206              	.LVL24:
ARM GAS  C:\Users\mac_000\AppData\Local\Temp\ccOOuQT3.s 			page 6


 207              	.L12:
 208              	.LBB3:
  79:main.c        ****             unsigned long bit;
  80:main.c        ****             int diff;
  81:main.c        ****             
  82:main.c        ****             diff = Capture[i-1] -Capture[i];
 209              		.loc 1 82 0
 210 0080 4A1E     		subs	r2, r1, #1
 211 0082 3C4D     		ldr	r5, .L27+4
 212 0084 5200     		lsls	r2, r2, #1
 213 0086 AA18     		adds	r2, r5, r2
 214 0088 0420     		movs	r0, #4
 215 008a 125E     		ldrsh	r2, [r2, r0]
 216 008c 4800     		lsls	r0, r1, #1
 217 008e 2818     		adds	r0, r5, r0
 218 0090 0425     		movs	r5, #4
 219 0092 405F     		ldrsh	r0, [r0, r5]
 220 0094 121A     		subs	r2, r2, r0
 221              	.LVL25:
  83:main.c        ****  
  84:main.c        ****             if (diff < 4) {
 222              		.loc 1 84 0
 223 0096 032A     		cmp	r2, #3
 224 0098 01DC     		bgt	.L24
  85:main.c        ****                 bit = 0;
 225              		.loc 1 85 0
 226 009a 0022     		movs	r2, #0
 227              	.LVL26:
 228 009c 01E0     		b	.L10
 229              	.LVL27:
 230              	.L24:
  86:main.c        ****             }
  87:main.c        ****             else {
  88:main.c        ****                 bit = 0x80000000u;
 231              		.loc 1 88 0
 232 009e 8022     		movs	r2, #128
 233              	.LVL28:
 234 00a0 1206     		lsls	r2, r2, #24
 235              	.L10:
 236              	.LVL29:
  89:main.c        ****             }
  90:main.c        ****             L >>= 1;
 237              		.loc 1 90 0
 238 00a2 5B08     		lsrs	r3, r3, #1
 239              	.LVL30:
  91:main.c        ****             L = L | bit;
 240              		.loc 1 91 0
 241 00a4 1343     		orrs	r3, r2
 242              	.LVL31:
  92:main.c        ****             if (i >= CodeL) break;
 243              		.loc 1 92 0
 244 00a6 2129     		cmp	r1, #33
 245 00a8 04DC     		bgt	.L11
 246              	.LBE3:
  78:main.c        ****             unsigned long bit;
 247              		.loc 1 78 0 discriminator 2
 248 00aa 0131     		adds	r1, r1, #1
ARM GAS  C:\Users\mac_000\AppData\Local\Temp\ccOOuQT3.s 			page 7


 249              	.LVL32:
 250              	.L9:
  78:main.c        ****             unsigned long bit;
 251              		.loc 1 78 0 is_stmt 0 discriminator 1
 252 00ac 314A     		ldr	r2, .L27+4
 253 00ae 1668     		ldr	r6, [r2]
 254 00b0 B142     		cmp	r1, r6
 255 00b2 E5DB     		blt	.L12
 256              	.L11:
  93:main.c        ****         }
  94:main.c        ****         if (NCapture <= 3) {
 257              		.loc 1 94 0 is_stmt 1
 258 00b4 032E     		cmp	r6, #3
 259 00b6 01DC     		bgt	.L25
  95:main.c        ****             rep = 1;
 260              		.loc 1 95 0
 261 00b8 0127     		movs	r7, #1
 262 00ba 02E0     		b	.L13
 263              	.L25:
  96:main.c        ****         }
  97:main.c        ****         else {
  98:main.c        ****             rep = 0;
  99:main.c        ****             code = -1;
 264              		.loc 1 99 0
 265 00bc 0124     		movs	r4, #1
 266              	.LVL33:
 267 00be 6442     		rsbs	r4, r4, #0
  98:main.c        ****             code = -1;
 268              		.loc 1 98 0
 269 00c0 0027     		movs	r7, #0
 270              	.L13:
 271              	.LVL34:
 100:main.c        ****         }
 101:main.c        ****         
 102:main.c        **** 
 103:main.c        ****         if (NCapture >= CodeL) {
 272              		.loc 1 103 0
 273 00c2 212E     		cmp	r6, #33
 274 00c4 18DD     		ble	.L14
 275              	.LVL35:
 104:main.c        ****             b0 = L & 0xff;
 105:main.c        ****             b1 = (L & 0xff00) >> 8;
 276              		.loc 1 105 0
 277 00c6 180A     		lsrs	r0, r3, #8
 106:main.c        ****             b2 = (L & 0xff0000) >> 16;
 278              		.loc 1 106 0
 279 00c8 190C     		lsrs	r1, r3, #16
 280              	.LVL36:
 107:main.c        ****             b3 = (L & 0xff000000) >> 24;
 281              		.loc 1 107 0
 282 00ca 1D0E     		lsrs	r5, r3, #24
 108:main.c        ****             if (((b0 ^ (~b1 & 0xff)) | (b2 ^ (~b3 & 0xff))) == 0) {
 283              		.loc 1 108 0
 284 00cc FF22     		movs	r2, #255
 285 00ce 1600     		movs	r6, r2
 286 00d0 8643     		bics	r6, r0
 287 00d2 3000     		movs	r0, r6
ARM GAS  C:\Users\mac_000\AppData\Local\Temp\ccOOuQT3.s 			page 8


 288 00d4 1600     		movs	r6, r2
 289 00d6 1E40     		ands	r6, r3
 290 00d8 7040     		eors	r0, r6
 291 00da 1140     		ands	r1, r2
 292              	.LVL37:
 293 00dc AA43     		bics	r2, r5
 294 00de 4A40     		eors	r2, r1
 295 00e0 0243     		orrs	r2, r0
 296 00e2 05D1     		bne	.L15
 109:main.c        ****                 code = ((b0 & 0xff) << 8) | (b2 & 0xff);
 297              		.loc 1 109 0
 298 00e4 1C02     		lsls	r4, r3, #8
 299              	.LVL38:
 300 00e6 FF22     		movs	r2, #255
 301 00e8 1202     		lsls	r2, r2, #8
 302 00ea 1440     		ands	r4, r2
 303 00ec 0C43     		orrs	r4, r1
 304              	.LVL39:
 305 00ee 03E0     		b	.L14
 306              	.L15:
 110:main.c        ****             }
 111:main.c        ****             else if (rep == 0) {
 307              		.loc 1 111 0
 308 00f0 002F     		cmp	r7, #0
 309 00f2 01D1     		bne	.L14
 112:main.c        ****                 code = -1;
 310              		.loc 1 112 0
 311 00f4 0124     		movs	r4, #1
 312              	.LVL40:
 313 00f6 6442     		rsbs	r4, r4, #0
 314              	.LVL41:
 315              	.L14:
 113:main.c        ****             }
 114:main.c        ****         }      
 115:main.c        ****         snprintf(buf, 80, "%x\r\n", L);
 316              		.loc 1 115 0
 317 00f8 204A     		ldr	r2, .L27+12
 318 00fa 5021     		movs	r1, #80
 319 00fc 6846     		mov	r0, sp
 320 00fe FFF7FEFF 		bl	snprintf
 321              	.LVL42:
 116:main.c        ****         Puts(buf);
 322              		.loc 1 116 0
 323 0102 6846     		mov	r0, sp
 324 0104 FFF7FEFF 		bl	Puts
 325              	.LVL43:
 117:main.c        ****         
 118:main.c        ****         struct KEY const *p;
 119:main.c        ****         for (p = &key[0]; p->code != 0; p++) {
 326              		.loc 1 119 0
 327 0108 1D4D     		ldr	r5, .L27+16
 328 010a 2BE0     		b	.L16
 329              	.LVL44:
 330              	.L23:
 120:main.c        ****             if ((short)code == p->code) {
 331              		.loc 1 120 0
 332 010c 22B2     		sxth	r2, r4
ARM GAS  C:\Users\mac_000\AppData\Local\Temp\ccOOuQT3.s 			page 9


 333 010e 9342     		cmp	r3, r2
 334 0110 27D1     		bne	.L17
 121:main.c        ****                 if (p->motor & BL) {
 335              		.loc 1 121 0
 336 0112 AB78     		ldrb	r3, [r5, #2]
 337 0114 1B07     		lsls	r3, r3, #28
 338 0116 05D5     		bpl	.L18
 122:main.c        ****                     M_BL_Write(1); Puts("BL ");
 339              		.loc 1 122 0
 340 0118 0120     		movs	r0, #1
 341 011a FFF7FEFF 		bl	M_BL_Write
 342              	.LVL45:
 343 011e 1948     		ldr	r0, .L27+20
 344 0120 FFF7FEFF 		bl	Puts
 345              	.LVL46:
 346              	.L18:
 123:main.c        ****                 };
 124:main.c        ****                 if (p->motor & BR) {
 347              		.loc 1 124 0
 348 0124 AB78     		ldrb	r3, [r5, #2]
 349 0126 5B07     		lsls	r3, r3, #29
 350 0128 05D5     		bpl	.L19
 125:main.c        ****                     M_BR_Write(1); Puts("BR ");
 351              		.loc 1 125 0
 352 012a 0120     		movs	r0, #1
 353 012c FFF7FEFF 		bl	M_BR_Write
 354              	.LVL47:
 355 0130 1548     		ldr	r0, .L27+24
 356 0132 FFF7FEFF 		bl	Puts
 357              	.LVL48:
 358              	.L19:
 126:main.c        ****                 };
 127:main.c        ****                 if (p->motor & FL) {
 359              		.loc 1 127 0
 360 0136 AB78     		ldrb	r3, [r5, #2]
 361 0138 9B07     		lsls	r3, r3, #30
 362 013a 05D5     		bpl	.L20
 128:main.c        ****                     M_FL_Write(1); Puts("FL ");
 363              		.loc 1 128 0
 364 013c 0120     		movs	r0, #1
 365 013e FFF7FEFF 		bl	M_FL_Write
 366              	.LVL49:
 367 0142 1248     		ldr	r0, .L27+28
 368 0144 FFF7FEFF 		bl	Puts
 369              	.LVL50:
 370              	.L20:
 129:main.c        ****                 };
 130:main.c        ****                 if (p->motor & FR) {
 371              		.loc 1 130 0
 372 0148 AB78     		ldrb	r3, [r5, #2]
 373 014a DB07     		lsls	r3, r3, #31
 374 014c 05D5     		bpl	.L21
 131:main.c        ****                     M_FR_Write(1); Puts("FR ");
 375              		.loc 1 131 0
 376 014e 0120     		movs	r0, #1
 377 0150 FFF7FEFF 		bl	M_FR_Write
 378              	.LVL51:
ARM GAS  C:\Users\mac_000\AppData\Local\Temp\ccOOuQT3.s 			page 10


 379 0154 0E48     		ldr	r0, .L27+32
 380 0156 FFF7FEFF 		bl	Puts
 381              	.LVL52:
 382              	.L21:
 132:main.c        ****                 };
 133:main.c        ****                 Puts("\r\n");
 383              		.loc 1 133 0
 384 015a 0E48     		ldr	r0, .L27+36
 385 015c FFF7FEFF 		bl	Puts
 386              	.LVL53:
 134:main.c        ****                 break;
 387              		.loc 1 134 0
 388 0160 5BE7     		b	.L6
 389              	.L17:
 119:main.c        ****             if ((short)code == p->code) {
 390              		.loc 1 119 0 discriminator 2
 391 0162 0435     		adds	r5, r5, #4
 392              	.LVL54:
 393              	.L16:
 119:main.c        ****             if ((short)code == p->code) {
 394              		.loc 1 119 0 is_stmt 0 discriminator 1
 395 0164 0022     		movs	r2, #0
 396 0166 AB5E     		ldrsh	r3, [r5, r2]
 397 0168 002B     		cmp	r3, #0
 398 016a CFD1     		bne	.L23
 399 016c 55E7     		b	.L6
 400              	.L28:
 401 016e C046     		.align	2
 402              	.L27:
 403 0170 00000000 		.word	do_capture
 404 0174 00000000 		.word	.LANCHOR0
 405 0178 00000000 		.word	.LC4
 406 017c 10000000 		.word	.LC6
 407 0180 00000000 		.word	.LANCHOR1
 408 0184 18000000 		.word	.LC8
 409 0188 1C000000 		.word	.LC10
 410 018c 20000000 		.word	.LC12
 411 0190 24000000 		.word	.LC14
 412 0194 28000000 		.word	.LC16
 413              	.LBE2:
 414              		.cfi_endproc
 415              	.LFE35:
 416              		.size	main, .-main
 417              		.global	key
 418              		.comm	M_Stat,1,1
 419              		.section	.rodata
 420              		.align	2
 421              		.set	.LANCHOR1,. + 0
 422              		.type	key, %object
 423              		.size	key, 40
 424              	key:
 425 0000 B110     		.short	4273
 426 0002 02       		.byte	2
 427 0003 00       		.space	1
 428 0004 A010     		.short	4256
 429 0006 03       		.byte	3
 430 0007 00       		.space	1
ARM GAS  C:\Users\mac_000\AppData\Local\Temp\ccOOuQT3.s 			page 11


 431 0008 2110     		.short	4129
 432 000a 01       		.byte	1
 433 000b 00       		.space	1
 434 000c 1010     		.short	4112
 435 000e 06       		.byte	6
 436 000f 00       		.space	1
 437 0010 2010     		.short	4128
 438 0012 00       		.byte	0
 439 0013 00       		.space	1
 440 0014 8010     		.short	4224
 441 0016 09       		.byte	9
 442 0017 00       		.space	1
 443 0018 1110     		.short	4113
 444 001a 08       		.byte	8
 445 001b 00       		.space	1
 446 001c 0010     		.short	4096
 447 001e 0C       		.byte	12
 448 001f 00       		.space	1
 449 0020 8110     		.short	4225
 450 0022 04       		.byte	4
 451 0023 00       		.space	1
 452 0024 0000     		.short	0
 453 0026 00       		.byte	0
 454 0027 00       		.space	1
 455              		.section	.rodata.str1.4,"aMS",%progbits,1
 456              		.align	2
 457              	.LC4:
 458 0000 696E7465 		.ascii	"interrupt %d\015\012\000"
 458      72727570 
 458      74202564 
 458      0D0A00
 459 000f 00       		.space	1
 460              	.LC6:
 461 0010 25780D0A 		.ascii	"%x\015\012\000"
 461      00
 462 0015 000000   		.space	3
 463              	.LC8:
 464 0018 424C2000 		.ascii	"BL \000"
 465              	.LC10:
 466 001c 42522000 		.ascii	"BR \000"
 467              	.LC12:
 468 0020 464C2000 		.ascii	"FL \000"
 469              	.LC14:
 470 0024 46522000 		.ascii	"FR \000"
 471              	.LC16:
 472 0028 0D0A00   		.ascii	"\015\012\000"
 473              		.bss
 474              		.align	2
 475              		.set	.LANCHOR0,. + 0
 476              		.type	NCapture, %object
 477              		.size	NCapture, 4
 478              	NCapture:
 479 0000 00000000 		.space	4
 480              		.type	Capture, %object
 481              		.size	Capture, 200
 482              	Capture:
 483 0004 00000000 		.space	200
ARM GAS  C:\Users\mac_000\AppData\Local\Temp\ccOOuQT3.s 			page 12


 483      00000000 
 483      00000000 
 483      00000000 
 483      00000000 
 484              		.text
 485              	.Letext0:
 486              		.file 2 "Generated_Source\\PSoC4/cytypes.h"
 487              		.file 3 "Generated_Source\\PSoC4/Timer1.h"
 488              		.file 4 "Generated_Source\\PSoC4/UART1_SPI_UART.h"
 489              		.file 5 "Generated_Source\\PSoC4/ISR1.h"
 490              		.file 6 "Generated_Source\\PSoC4/Timer2.h"
 491              		.file 7 "Generated_Source\\PSoC4/LED.h"
 492              		.file 8 "c:\\program files (x86)\\cypress\\psoc creator\\4.3\\psoc creator\\import\\gnu\\arm\\5.4.
 493              		.file 9 "Generated_Source\\PSoC4/M_BL.h"
 494              		.file 10 "Generated_Source\\PSoC4/M_BR.h"
 495              		.file 11 "Generated_Source\\PSoC4/M_FL.h"
 496              		.file 12 "Generated_Source\\PSoC4/M_FR.h"
 497              		.file 13 "Generated_Source\\PSoC4/UART1.h"